Archive member included because of file (symbol)

..\..\..\..\..\..\microchip\xc32\v1.31\pic32mx\lib\libmchp_peripheral_32MX795F512L.a(open_core_timer_lib.o)
                              build/default/debug/src/app/app_tasks/motion.o (OpenCoreTimer)
..\..\..\..\..\..\microchip\xc32\v1.31\pic32mx\lib\libmchp_peripheral_32MX795F512L.a(pcache.o)
                              build/default/debug/src/app/system_config/pic32_mx/system_init.o (CheKseg0CacheOn)
..\..\..\..\..\..\microchip\xc32\v1.31\pic32mx\lib\libmchp_peripheral_32MX795F512L.a(int_configure_system_lib.o)
                              build/default/debug/src/app/system_config/pic32_mx/system_init.o (INTConfigureSystem)
..\..\..\..\..\..\microchip\xc32\v1.31\pic32mx\lib\libmchp_peripheral_32MX795F512L.a(int_enable_interrupts_lib.o)
                              build/default/debug/src/app/system_config/pic32_mx/system_init.o (INTEnableInterrupts)
..\..\..\..\..\..\microchip\xc32\v1.31\pic32mx\lib\libmchp_peripheral_32MX795F512L.a(int_disable_interrupts_lib.o)
                              build/default/debug/src/app/system_config/pic32_mx/system_init.o (INTDisableInterrupts)
..\..\..\..\..\..\microchip\xc32\v1.31\pic32mx\lib\libmchp_peripheral_32MX795F512L.a(int_restore_interrupts_lib.o)
                              build/default/debug/src/app/system_config/pic32_mx/system_init.o (INTRestoreInterrupts)
..\..\..\..\..\..\microchip\xc32\v1.31\pic32mx\lib\libmchp_peripheral_32MX795F512L.a(int_tbl_lib.o)
                              build/default/debug/src/app/system_config/pic32_mx/system_interrupt.o (INTClearFlag)
..\..\..\..\..\..\microchip\xc32\v1.31\pic32mx\lib\libmchp_peripheral_32MX795F512L.a(nvm_erase_page_lib.o)
                              build/default/debug/src/app/app_tasks/dee_emulation_pic32.o (NVMErasePage)
..\..\..\..\..\..\microchip\xc32\v1.31\pic32mx\lib\libmchp_peripheral_32MX795F512L.a(nvm_operation_lib.o)
                              ..\..\..\..\..\..\microchip\xc32\v1.31\pic32mx\lib\libmchp_peripheral_32MX795F512L.a(nvm_erase_page_lib.o) (_NVMOperation)
..\..\..\..\..\..\microchip\xc32\v1.31\pic32mx\lib\libmchp_peripheral_32MX795F512L.a(nvm_write_word_lib.o)
                              build/default/debug/src/app/app_tasks/dee_emulation_pic32.o (NVMWriteWord)
..\..\..\..\..\..\microchip\xc32\v1.31\pic32mx\lib\libmchp_peripheral_32MX795F512L.a(port_set_pins_digital_in_lib.o)
                              build/default/debug/src/bsp/cnc_rev_00/bsp_sys_init.o (PORTSetPinsDigitalIn)
..\..\..\..\..\..\microchip\xc32\v1.31\pic32mx\lib\libmchp_peripheral_32MX795F512L.a(port_set_pins_digital_out_lib.o)
                              build/default/debug/src/bsp/cnc_rev_00/bsp_sys_init.o (PORTSetPinsDigitalOut)
..\..\..\..\..\..\microchip\xc32\v1.31\pic32mx\lib\libmchp_peripheral_32MX795F512L.a(port_read_bits_lib.o)
                              build/default/debug/src/bsp/cnc_rev_00/bsp_sys_init.o (PORTReadBits)
..\..\..\..\..\..\microchip\xc32\v1.31\pic32mx\lib\libmchp_peripheral_32MX795F512L.a(port_clear_bits_lib.o)
                              build/default/debug/src/app/app_tasks/stepper.o (PORTClearBits)
..\..\..\..\..\..\microchip\xc32\v1.31\pic32mx\lib\libmchp_peripheral_32MX795F512L.a(port_set_bits_lib.o)
                              build/default/debug/src/app/app_tasks/stepper.o (PORTSetBits)
..\..\..\..\..\..\microchip\xc32\v1.31\pic32mx\lib\libmchp_peripheral_32MX795F512L.a(_ports_tbl_libp.o)
                              ..\..\..\..\..\..\microchip\xc32\v1.31\pic32mx\lib\libmchp_peripheral_32MX795F512L.a(port_set_pins_digital_in_lib.o) (PortRegTbl)
..\..\..\..\..\..\microchip\xc32\v1.31\pic32mx\lib\libmchp_peripheral_32MX795F512L.a(uart_lib.o)
                              build/default/debug/src/bsp/cnc_rev_00/bsp_sys_init.o (UARTEnable)
c:/microchip/xc32/v1.31/bin/../lib/gcc/pic32mx/4.5.2\libgcc.a(floatunsisf.o)
                              build/default/debug/src/app/app_tasks/program_planner.o (__floatunsisf)
c:/microchip/xc32/v1.31/bin/../lib/gcc/pic32mx/4.5.2/../../../../pic32mx/lib\libpic32.a(memcpy.o)
                              build/default/debug/src/app/app_tasks/program_planner.o (memcpy)
c:/microchip/xc32/v1.31/bin/../lib/gcc/pic32mx/4.5.2/../../../../pic32mx/lib\libpic32.a(memset.o)
                              build/default/debug/src/app/app_tasks/program_planner.o (memset)
c:/microchip/xc32/v1.31/bin/../lib/gcc/pic32mx/4.5.2/../../../../pic32mx/lib\libpic32.a(default-bootstrap-exception-handler.o)
                              c:/microchip/xc32/v1.31/bin/../lib/gcc/pic32mx/4.5.2/../../../../pic32mx/lib/./proc/32MX795F512L/crt0_mips32r2.o (_bootstrap_exception_handler)
c:/microchip/xc32/v1.31/bin/../lib/gcc/pic32mx/4.5.2/../../../../pic32mx/lib\libpic32.a(default-on-reset.o)
                              c:/microchip/xc32/v1.31/bin/../lib/gcc/pic32mx/4.5.2/../../../../pic32mx/lib/./proc/32MX795F512L/crt0_mips32r2.o (_on_reset)
c:/microchip/xc32/v1.31/bin/../lib/gcc/pic32mx/4.5.2/../../../../pic32mx/lib\libpic32.a(default-on-bootstrap.o)
                              c:/microchip/xc32/v1.31/bin/../lib/gcc/pic32mx/4.5.2/../../../../pic32mx/lib/./proc/32MX795F512L/crt0_mips32r2.o (_on_bootstrap)
c:/microchip/xc32/v1.31/bin/../lib/gcc/pic32mx/4.5.2/../../../../pic32mx/lib\libpic32.a(default-nmi-handler.o)
                              c:/microchip/xc32/v1.31/bin/../lib/gcc/pic32mx/4.5.2/../../../../pic32mx/lib/./proc/32MX795F512L/crt0_mips32r2.o (_nmi_handler)
c:/microchip/xc32/v1.31/bin/../lib/gcc/pic32mx/4.5.2/../../../../pic32mx/lib\libpic32.a(pic32_software_reset.o)
                              c:/microchip/xc32/v1.31/bin/../lib/gcc/pic32mx/4.5.2/../../../../pic32mx/lib\libpic32.a(default-bootstrap-exception-handler.o) (__pic32_software_reset)
c:/microchip/xc32/v1.31/bin/../lib/gcc/pic32mx/4.5.2/../../../../pic32mx/lib\libpic32.a(general-exception.o)
                              c:/microchip/xc32/v1.31/bin/../lib/gcc/pic32mx/4.5.2/../../../../pic32mx/lib/./proc/32MX795F512L/crt0_mips32r2.o (_general_exception_context)
c:/microchip/xc32/v1.31/bin/../lib/gcc/pic32mx/4.5.2/../../../../pic32mx/lib\libpic32.a(vector1.o)
                              c:/microchip/xc32/v1.31/bin/../lib/gcc/pic32mx/4.5.2/../../../../pic32mx/lib/./proc/32MX795F512L\default_isr_vectors.o (__vector_dispatch_1)
c:/microchip/xc32/v1.31/bin/../lib/gcc/pic32mx/4.5.2/../../../../pic32mx/lib\libpic32.a(vector2.o)
                              c:/microchip/xc32/v1.31/bin/../lib/gcc/pic32mx/4.5.2/../../../../pic32mx/lib/./proc/32MX795F512L\default_isr_vectors.o (__vector_dispatch_2)
c:/microchip/xc32/v1.31/bin/../lib/gcc/pic32mx/4.5.2/../../../../pic32mx/lib\libpic32.a(vector3.o)
                              c:/microchip/xc32/v1.31/bin/../lib/gcc/pic32mx/4.5.2/../../../../pic32mx/lib/./proc/32MX795F512L\default_isr_vectors.o (__vector_dispatch_3)
c:/microchip/xc32/v1.31/bin/../lib/gcc/pic32mx/4.5.2/../../../../pic32mx/lib\libpic32.a(vector5.o)
                              c:/microchip/xc32/v1.31/bin/../lib/gcc/pic32mx/4.5.2/../../../../pic32mx/lib/./proc/32MX795F512L\default_isr_vectors.o (__vector_dispatch_5)
c:/microchip/xc32/v1.31/bin/../lib/gcc/pic32mx/4.5.2/../../../../pic32mx/lib\libpic32.a(vector6.o)
                              c:/microchip/xc32/v1.31/bin/../lib/gcc/pic32mx/4.5.2/../../../../pic32mx/lib/./proc/32MX795F512L\default_isr_vectors.o (__vector_dispatch_6)
c:/microchip/xc32/v1.31/bin/../lib/gcc/pic32mx/4.5.2/../../../../pic32mx/lib\libpic32.a(vector9.o)
                              c:/microchip/xc32/v1.31/bin/../lib/gcc/pic32mx/4.5.2/../../../../pic32mx/lib/./proc/32MX795F512L\default_isr_vectors.o (__vector_dispatch_9)
c:/microchip/xc32/v1.31/bin/../lib/gcc/pic32mx/4.5.2/../../../../pic32mx/lib\libpic32.a(vector10.o)
                              c:/microchip/xc32/v1.31/bin/../lib/gcc/pic32mx/4.5.2/../../../../pic32mx/lib/./proc/32MX795F512L\default_isr_vectors.o (__vector_dispatch_10)
c:/microchip/xc32/v1.31/bin/../lib/gcc/pic32mx/4.5.2/../../../../pic32mx/lib\libpic32.a(vector13.o)
                              c:/microchip/xc32/v1.31/bin/../lib/gcc/pic32mx/4.5.2/../../../../pic32mx/lib/./proc/32MX795F512L\default_isr_vectors.o (__vector_dispatch_13)
c:/microchip/xc32/v1.31/bin/../lib/gcc/pic32mx/4.5.2/../../../../pic32mx/lib\libpic32.a(vector14.o)
                              c:/microchip/xc32/v1.31/bin/../lib/gcc/pic32mx/4.5.2/../../../../pic32mx/lib/./proc/32MX795F512L\default_isr_vectors.o (__vector_dispatch_14)
c:/microchip/xc32/v1.31/bin/../lib/gcc/pic32mx/4.5.2/../../../../pic32mx/lib\libpic32.a(vector15.o)
                              c:/microchip/xc32/v1.31/bin/../lib/gcc/pic32mx/4.5.2/../../../../pic32mx/lib/./proc/32MX795F512L\default_isr_vectors.o (__vector_dispatch_15)
c:/microchip/xc32/v1.31/bin/../lib/gcc/pic32mx/4.5.2/../../../../pic32mx/lib\libpic32.a(vector17.o)
                              c:/microchip/xc32/v1.31/bin/../lib/gcc/pic32mx/4.5.2/../../../../pic32mx/lib/./proc/32MX795F512L\default_isr_vectors.o (__vector_dispatch_17)
c:/microchip/xc32/v1.31/bin/../lib/gcc/pic32mx/4.5.2/../../../../pic32mx/lib\libpic32.a(vector18.o)
                              c:/microchip/xc32/v1.31/bin/../lib/gcc/pic32mx/4.5.2/../../../../pic32mx/lib/./proc/32MX795F512L\default_isr_vectors.o (__vector_dispatch_18)
c:/microchip/xc32/v1.31/bin/../lib/gcc/pic32mx/4.5.2/../../../../pic32mx/lib\libpic32.a(vector19.o)
                              c:/microchip/xc32/v1.31/bin/../lib/gcc/pic32mx/4.5.2/../../../../pic32mx/lib/./proc/32MX795F512L\default_isr_vectors.o (__vector_dispatch_19)
c:/microchip/xc32/v1.31/bin/../lib/gcc/pic32mx/4.5.2/../../../../pic32mx/lib\libpic32.a(vector20.o)
                              c:/microchip/xc32/v1.31/bin/../lib/gcc/pic32mx/4.5.2/../../../../pic32mx/lib/./proc/32MX795F512L\default_isr_vectors.o (__vector_dispatch_20)
c:/microchip/xc32/v1.31/bin/../lib/gcc/pic32mx/4.5.2/../../../../pic32mx/lib\libpic32.a(vector21.o)
                              c:/microchip/xc32/v1.31/bin/../lib/gcc/pic32mx/4.5.2/../../../../pic32mx/lib/./proc/32MX795F512L\default_isr_vectors.o (__vector_dispatch_21)
c:/microchip/xc32/v1.31/bin/../lib/gcc/pic32mx/4.5.2/../../../../pic32mx/lib\libpic32.a(vector22.o)
                              c:/microchip/xc32/v1.31/bin/../lib/gcc/pic32mx/4.5.2/../../../../pic32mx/lib/./proc/32MX795F512L\default_isr_vectors.o (__vector_dispatch_22)
c:/microchip/xc32/v1.31/bin/../lib/gcc/pic32mx/4.5.2/../../../../pic32mx/lib\libpic32.a(vector23.o)
                              c:/microchip/xc32/v1.31/bin/../lib/gcc/pic32mx/4.5.2/../../../../pic32mx/lib/./proc/32MX795F512L\default_isr_vectors.o (__vector_dispatch_23)
c:/microchip/xc32/v1.31/bin/../lib/gcc/pic32mx/4.5.2/../../../../pic32mx/lib\libpic32.a(vector24.o)
                              c:/microchip/xc32/v1.31/bin/../lib/gcc/pic32mx/4.5.2/../../../../pic32mx/lib/./proc/32MX795F512L\default_isr_vectors.o (__vector_dispatch_24)
c:/microchip/xc32/v1.31/bin/../lib/gcc/pic32mx/4.5.2/../../../../pic32mx/lib\libpic32.a(vector25.o)
                              c:/microchip/xc32/v1.31/bin/../lib/gcc/pic32mx/4.5.2/../../../../pic32mx/lib/./proc/32MX795F512L\default_isr_vectors.o (__vector_dispatch_25)
c:/microchip/xc32/v1.31/bin/../lib/gcc/pic32mx/4.5.2/../../../../pic32mx/lib\libpic32.a(vector26.o)
                              c:/microchip/xc32/v1.31/bin/../lib/gcc/pic32mx/4.5.2/../../../../pic32mx/lib/./proc/32MX795F512L\default_isr_vectors.o (__vector_dispatch_26)
c:/microchip/xc32/v1.31/bin/../lib/gcc/pic32mx/4.5.2/../../../../pic32mx/lib\libpic32.a(vector27.o)
                              c:/microchip/xc32/v1.31/bin/../lib/gcc/pic32mx/4.5.2/../../../../pic32mx/lib/./proc/32MX795F512L\default_isr_vectors.o (__vector_dispatch_27)
c:/microchip/xc32/v1.31/bin/../lib/gcc/pic32mx/4.5.2/../../../../pic32mx/lib\libpic32.a(vector28.o)
                              c:/microchip/xc32/v1.31/bin/../lib/gcc/pic32mx/4.5.2/../../../../pic32mx/lib/./proc/32MX795F512L\default_isr_vectors.o (__vector_dispatch_28)
c:/microchip/xc32/v1.31/bin/../lib/gcc/pic32mx/4.5.2/../../../../pic32mx/lib\libpic32.a(vector29.o)
                              c:/microchip/xc32/v1.31/bin/../lib/gcc/pic32mx/4.5.2/../../../../pic32mx/lib/./proc/32MX795F512L\default_isr_vectors.o (__vector_dispatch_29)
c:/microchip/xc32/v1.31/bin/../lib/gcc/pic32mx/4.5.2/../../../../pic32mx/lib\libpic32.a(vector30.o)
                              c:/microchip/xc32/v1.31/bin/../lib/gcc/pic32mx/4.5.2/../../../../pic32mx/lib/./proc/32MX795F512L\default_isr_vectors.o (__vector_dispatch_30)
c:/microchip/xc32/v1.31/bin/../lib/gcc/pic32mx/4.5.2/../../../../pic32mx/lib\libpic32.a(vector31.o)
                              c:/microchip/xc32/v1.31/bin/../lib/gcc/pic32mx/4.5.2/../../../../pic32mx/lib/./proc/32MX795F512L\default_isr_vectors.o (__vector_dispatch_31)
c:/microchip/xc32/v1.31/bin/../lib/gcc/pic32mx/4.5.2/../../../../pic32mx/lib\libpic32.a(vector33.o)
                              c:/microchip/xc32/v1.31/bin/../lib/gcc/pic32mx/4.5.2/../../../../pic32mx/lib/./proc/32MX795F512L\default_isr_vectors.o (__vector_dispatch_33)
c:/microchip/xc32/v1.31/bin/../lib/gcc/pic32mx/4.5.2/../../../../pic32mx/lib\libpic32.a(vector34.o)
                              c:/microchip/xc32/v1.31/bin/../lib/gcc/pic32mx/4.5.2/../../../../pic32mx/lib/./proc/32MX795F512L\default_isr_vectors.o (__vector_dispatch_34)
c:/microchip/xc32/v1.31/bin/../lib/gcc/pic32mx/4.5.2/../../../../pic32mx/lib\libpic32.a(vector35.o)
                              c:/microchip/xc32/v1.31/bin/../lib/gcc/pic32mx/4.5.2/../../../../pic32mx/lib/./proc/32MX795F512L\default_isr_vectors.o (__vector_dispatch_35)
c:/microchip/xc32/v1.31/bin/../lib/gcc/pic32mx/4.5.2/../../../../pic32mx/lib\libpic32.a(vector36.o)
                              c:/microchip/xc32/v1.31/bin/../lib/gcc/pic32mx/4.5.2/../../../../pic32mx/lib/./proc/32MX795F512L\default_isr_vectors.o (__vector_dispatch_36)
c:/microchip/xc32/v1.31/bin/../lib/gcc/pic32mx/4.5.2/../../../../pic32mx/lib\libpic32.a(vector37.o)
                              c:/microchip/xc32/v1.31/bin/../lib/gcc/pic32mx/4.5.2/../../../../pic32mx/lib/./proc/32MX795F512L\default_isr_vectors.o (__vector_dispatch_37)
c:/microchip/xc32/v1.31/bin/../lib/gcc/pic32mx/4.5.2/../../../../pic32mx/lib\libpic32.a(vector38.o)
                              c:/microchip/xc32/v1.31/bin/../lib/gcc/pic32mx/4.5.2/../../../../pic32mx/lib/./proc/32MX795F512L\default_isr_vectors.o (__vector_dispatch_38)
c:/microchip/xc32/v1.31/bin/../lib/gcc/pic32mx/4.5.2/../../../../pic32mx/lib\libpic32.a(vector39.o)
                              c:/microchip/xc32/v1.31/bin/../lib/gcc/pic32mx/4.5.2/../../../../pic32mx/lib/./proc/32MX795F512L\default_isr_vectors.o (__vector_dispatch_39)
c:/microchip/xc32/v1.31/bin/../lib/gcc/pic32mx/4.5.2/../../../../pic32mx/lib\libpic32.a(vector40.o)
                              c:/microchip/xc32/v1.31/bin/../lib/gcc/pic32mx/4.5.2/../../../../pic32mx/lib/./proc/32MX795F512L\default_isr_vectors.o (__vector_dispatch_40)
c:/microchip/xc32/v1.31/bin/../lib/gcc/pic32mx/4.5.2/../../../../pic32mx/lib\libpic32.a(vector41.o)
                              c:/microchip/xc32/v1.31/bin/../lib/gcc/pic32mx/4.5.2/../../../../pic32mx/lib/./proc/32MX795F512L\default_isr_vectors.o (__vector_dispatch_41)
c:/microchip/xc32/v1.31/bin/../lib/gcc/pic32mx/4.5.2/../../../../pic32mx/lib\libpic32.a(vector42.o)
                              c:/microchip/xc32/v1.31/bin/../lib/gcc/pic32mx/4.5.2/../../../../pic32mx/lib/./proc/32MX795F512L\default_isr_vectors.o (__vector_dispatch_42)
c:/microchip/xc32/v1.31/bin/../lib/gcc/pic32mx/4.5.2/../../../../pic32mx/lib\libpic32.a(vector43.o)
                              c:/microchip/xc32/v1.31/bin/../lib/gcc/pic32mx/4.5.2/../../../../pic32mx/lib/./proc/32MX795F512L\default_isr_vectors.o (__vector_dispatch_43)
c:/microchip/xc32/v1.31/bin/../lib/gcc/pic32mx/4.5.2/../../../../pic32mx/lib\libpic32.a(vector44.o)
                              c:/microchip/xc32/v1.31/bin/../lib/gcc/pic32mx/4.5.2/../../../../pic32mx/lib/./proc/32MX795F512L\default_isr_vectors.o (__vector_dispatch_44)
c:/microchip/xc32/v1.31/bin/../lib/gcc/pic32mx/4.5.2/../../../../pic32mx/lib\libpic32.a(vector45.o)
                              c:/microchip/xc32/v1.31/bin/../lib/gcc/pic32mx/4.5.2/../../../../pic32mx/lib/./proc/32MX795F512L\default_isr_vectors.o (__vector_dispatch_45)
c:/microchip/xc32/v1.31/bin/../lib/gcc/pic32mx/4.5.2/../../../../pic32mx/lib\libpic32.a(vector46.o)
                              c:/microchip/xc32/v1.31/bin/../lib/gcc/pic32mx/4.5.2/../../../../pic32mx/lib/./proc/32MX795F512L\default_isr_vectors.o (__vector_dispatch_46)
c:/microchip/xc32/v1.31/bin/../lib/gcc/pic32mx/4.5.2/../../../../pic32mx/lib\libpic32.a(vector47.o)
                              c:/microchip/xc32/v1.31/bin/../lib/gcc/pic32mx/4.5.2/../../../../pic32mx/lib/./proc/32MX795F512L\default_isr_vectors.o (__vector_dispatch_47)
c:/microchip/xc32/v1.31/bin/../lib/gcc/pic32mx/4.5.2/../../../../pic32mx/lib\libpic32.a(vector48.o)
                              c:/microchip/xc32/v1.31/bin/../lib/gcc/pic32mx/4.5.2/../../../../pic32mx/lib/./proc/32MX795F512L\default_isr_vectors.o (__vector_dispatch_48)
c:/microchip/xc32/v1.31/bin/../lib/gcc/pic32mx/4.5.2/../../../../pic32mx/lib\libpic32.a(vector49.o)
                              c:/microchip/xc32/v1.31/bin/../lib/gcc/pic32mx/4.5.2/../../../../pic32mx/lib/./proc/32MX795F512L\default_isr_vectors.o (__vector_dispatch_49)
c:/microchip/xc32/v1.31/bin/../lib/gcc/pic32mx/4.5.2/../../../../pic32mx/lib\libpic32.a(vector50.o)
                              c:/microchip/xc32/v1.31/bin/../lib/gcc/pic32mx/4.5.2/../../../../pic32mx/lib/./proc/32MX795F512L\default_isr_vectors.o (__vector_dispatch_50)
c:/microchip/xc32/v1.31/bin/../lib/gcc/pic32mx/4.5.2/../../../../pic32mx/lib\libpic32.a(vector51.o)
                              c:/microchip/xc32/v1.31/bin/../lib/gcc/pic32mx/4.5.2/../../../../pic32mx/lib/./proc/32MX795F512L\default_isr_vectors.o (__vector_dispatch_51)
c:/microchip/xc32/v1.31/bin/../lib/gcc/pic32mx/4.5.2/../../../../pic32mx/lib\libpic32.a(vector52.o)
                              c:/microchip/xc32/v1.31/bin/../lib/gcc/pic32mx/4.5.2/../../../../pic32mx/lib/./proc/32MX795F512L\default_isr_vectors.o (__vector_dispatch_52)
c:/microchip/xc32/v1.31/bin/../lib/gcc/pic32mx/4.5.2/../../../../pic32mx/lib\libpic32.a(vector53.o)
                              c:/microchip/xc32/v1.31/bin/../lib/gcc/pic32mx/4.5.2/../../../../pic32mx/lib/./proc/32MX795F512L\default_isr_vectors.o (__vector_dispatch_53)
c:/microchip/xc32/v1.31/bin/../lib/gcc/pic32mx/4.5.2/../../../../pic32mx/lib\libpic32.a(vector54.o)
                              c:/microchip/xc32/v1.31/bin/../lib/gcc/pic32mx/4.5.2/../../../../pic32mx/lib/./proc/32MX795F512L\default_isr_vectors.o (__vector_dispatch_54)
c:/microchip/xc32/v1.31/bin/../lib/gcc/pic32mx/4.5.2/../../../../pic32mx/lib\libpic32.a(vector55.o)
                              c:/microchip/xc32/v1.31/bin/../lib/gcc/pic32mx/4.5.2/../../../../pic32mx/lib/./proc/32MX795F512L\default_isr_vectors.o (__vector_dispatch_55)
c:/microchip/xc32/v1.31/bin/../lib/gcc/pic32mx/4.5.2/../../../../pic32mx/lib\libpic32.a(vector56.o)
                              c:/microchip/xc32/v1.31/bin/../lib/gcc/pic32mx/4.5.2/../../../../pic32mx/lib/./proc/32MX795F512L\default_isr_vectors.o (__vector_dispatch_56)
c:/microchip/xc32/v1.31/bin/../lib/gcc/pic32mx/4.5.2/../../../../pic32mx/lib\libpic32.a(vector57.o)
                              c:/microchip/xc32/v1.31/bin/../lib/gcc/pic32mx/4.5.2/../../../../pic32mx/lib/./proc/32MX795F512L\default_isr_vectors.o (__vector_dispatch_57)
c:/microchip/xc32/v1.31/bin/../lib/gcc/pic32mx/4.5.2/../../../../pic32mx/lib\libpic32.a(vector58.o)
                              c:/microchip/xc32/v1.31/bin/../lib/gcc/pic32mx/4.5.2/../../../../pic32mx/lib/./proc/32MX795F512L\default_isr_vectors.o (__vector_dispatch_58)
c:/microchip/xc32/v1.31/bin/../lib/gcc/pic32mx/4.5.2/../../../../pic32mx/lib\libpic32.a(vector59.o)
                              c:/microchip/xc32/v1.31/bin/../lib/gcc/pic32mx/4.5.2/../../../../pic32mx/lib/./proc/32MX795F512L\default_isr_vectors.o (__vector_dispatch_59)
c:/microchip/xc32/v1.31/bin/../lib/gcc/pic32mx/4.5.2/../../../../pic32mx/lib\libpic32.a(vector60.o)
                              c:/microchip/xc32/v1.31/bin/../lib/gcc/pic32mx/4.5.2/../../../../pic32mx/lib/./proc/32MX795F512L\default_isr_vectors.o (__vector_dispatch_60)
c:/microchip/xc32/v1.31/bin/../lib/gcc/pic32mx/4.5.2/../../../../pic32mx/lib\libpic32.a(vector61.o)
                              c:/microchip/xc32/v1.31/bin/../lib/gcc/pic32mx/4.5.2/../../../../pic32mx/lib/./proc/32MX795F512L\default_isr_vectors.o (__vector_dispatch_61)
c:/microchip/xc32/v1.31/bin/../lib/gcc/pic32mx/4.5.2/../../../../pic32mx/lib\libpic32.a(vector62.o)
                              c:/microchip/xc32/v1.31/bin/../lib/gcc/pic32mx/4.5.2/../../../../pic32mx/lib/./proc/32MX795F512L\default_isr_vectors.o (__vector_dispatch_62)
c:/microchip/xc32/v1.31/bin/../lib/gcc/pic32mx/4.5.2/../../../../pic32mx/lib\libpic32.a(vector63.o)
                              c:/microchip/xc32/v1.31/bin/../lib/gcc/pic32mx/4.5.2/../../../../pic32mx/lib/./proc/32MX795F512L\default_isr_vectors.o (__vector_dispatch_63)
c:/microchip/xc32/v1.31/bin/../lib/gcc/pic32mx/4.5.2/../../../../pic32mx/lib\libpic32.a(default-general-exception-handler.o)
                              c:/microchip/xc32/v1.31/bin/../lib/gcc/pic32mx/4.5.2/../../../../pic32mx/lib\libpic32.a(general-exception.o) (_general_exception_handler)
c:/microchip/xc32/v1.31/bin/../lib/gcc/pic32mx/4.5.2/../../../../pic32mx/lib\libpic32.a(defaultinterrupt.o)
                              c:/microchip/xc32/v1.31/bin/../lib/gcc/pic32mx/4.5.2/../../../../pic32mx/lib\libpic32.a(vector1.o) (_DefaultInterrupt)
c:/microchip/xc32/v1.31/bin/../lib/gcc/pic32mx/4.5.2/../../../../pic32mx/lib\libm.a(w_atan2f.o)
                              build/default/debug/src/app/app_tasks/motion.o (atan2f)
c:/microchip/xc32/v1.31/bin/../lib/gcc/pic32mx/4.5.2/../../../../pic32mx/lib\libm.a(fparc32.o)
                              c:/microchip/xc32/v1.31/bin/../lib/gcc/pic32mx/4.5.2/../../../../pic32mx/lib\libm.a(w_atan2f.o) (__mchp_atan2f)
c:/microchip/xc32/v1.31/bin/../lib/gcc/pic32mx/4.5.2/../../../../pic32mx/lib\libm.a(fpfloo32.o)
                              build/default/debug/src/app/app_tasks/program_planner.o (floorf)
c:/microchip/xc32/v1.31/bin/../lib/gcc/pic32mx/4.5.2/../../../../pic32mx/lib\libm.a(fpceil32.o)
                              build/default/debug/src/app/app_tasks/program_planner.o (ceilf)
c:/microchip/xc32/v1.31/bin/../lib/gcc/pic32mx/4.5.2/../../../../pic32mx/lib\libm.a(dp32.o)
                              c:/microchip/xc32/v1.31/bin/../lib/gcc/pic32mx/4.5.2/../../../../pic32mx/lib\libm.a(w_atan2f.o) (fptodp)
c:/microchip/xc32/v1.31/bin/../lib/gcc/pic32mx/4.5.2/../../../../pic32mx/lib\libm.a(fpsqrt32.o)
                              c:/microchip/xc32/v1.31/bin/../lib/gcc/pic32mx/4.5.2/../../../../pic32mx/lib\libm.a(fparc32.o) (fpexsqrt)
c:/microchip/xc32/v1.31/bin/../lib/gcc/pic32mx/4.5.2/../../../../pic32mx/lib\libm.a(w_sqrtf.o)
                              build/default/debug/src/app/app_tasks/program_planner.o (sqrtf)
c:/microchip/xc32/v1.31/bin/../lib/gcc/pic32mx/4.5.2/../../../../pic32mx/lib\libm.a(fp32.o)
                              build/default/debug/src/app/app_tasks/program_planner.o (fpsub)
c:/microchip/xc32/v1.31/bin/../lib/gcc/pic32mx/4.5.2/../../../../pic32mx/lib\libm.a(fpcos32.o)
                              build/default/debug/src/app/app_tasks/motion.o (cosf)
c:/microchip/xc32/v1.31/bin/../lib/gcc/pic32mx/4.5.2/../../../../pic32mx/lib\libm.a(fpsin32.o)
                              build/default/debug/src/app/app_tasks/motion.o (sinf)
c:/microchip/xc32/v1.31/bin/../lib/gcc/pic32mx/4.5.2/../../../../pic32mx/lib\libm.a(fpreduct32.o)
                              c:/microchip/xc32/v1.31/bin/../lib/gcc/pic32mx/4.5.2/../../../../pic32mx/lib\libm.a(fpcos32.o) (fpreduct)
c:/microchip/xc32/v1.31/bin/../lib/gcc/pic32mx/4.5.2/../../../../pic32mx/lib\libm.a(sincof32.o)
                              c:/microchip/xc32/v1.31/bin/../lib/gcc/pic32mx/4.5.2/../../../../pic32mx/lib\libm.a(fpcos32.o) (_sincof)
c:/microchip/xc32/v1.31/bin/../lib/gcc/pic32mx/4.5.2/../../../../pic32mx/lib\libm.a(s_lib_ver.o)
                              c:/microchip/xc32/v1.31/bin/../lib/gcc/pic32mx/4.5.2/../../../../pic32mx/lib\libm.a(w_sqrtf.o) (math_errhandling)
c:/microchip/xc32/v1.31/bin/../lib/gcc/pic32mx/4.5.2/../../../../pic32mx/lib\libm.a(cabs.o)
                              build/default/debug/src/app/app_tasks/g_code.o (hypotf)
c:/microchip/xc32/v1.31/bin/../lib/gcc/pic32mx/4.5.2/../../../../pic32mx/lib\libm.a(support.o)
                              c:/microchip/xc32/v1.31/bin/../lib/gcc/pic32mx/4.5.2/../../../../pic32mx/lib\libm.a(cabs.o) (copysign)
c:/microchip/xc32/v1.31/bin/../lib/gcc/pic32mx/4.5.2/../../../../pic32mx/lib\libm.a(w_ldexp.o)
                              c:/microchip/xc32/v1.31/bin/../lib/gcc/pic32mx/4.5.2/../../../../pic32mx/lib\libm.a(support.o) (ldexp)
c:/microchip/xc32/v1.31/bin/../lib/gcc/pic32mx/4.5.2/../../../../pic32mx/lib\libm.a(w_sqrt.o)
                              c:/microchip/xc32/v1.31/bin/../lib/gcc/pic32mx/4.5.2/../../../../pic32mx/lib\libm.a(cabs.o) (sqrt)
c:/microchip/xc32/v1.31/bin/../lib/gcc/pic32mx/4.5.2/../../../../pic32mx/lib\libm.a(mod32.o)
                              c:/microchip/xc32/v1.31/bin/../lib/gcc/pic32mx/4.5.2/../../../../pic32mx/lib\libm.a(w_ldexp.o) (__mchp_ldexp)
c:/microchip/xc32/v1.31/bin/../lib/gcc/pic32mx/4.5.2/../../../../pic32mx/lib\libm.a(sqrt32.o)
                              c:/microchip/xc32/v1.31/bin/../lib/gcc/pic32mx/4.5.2/../../../../pic32mx/lib\libm.a(w_sqrt.o) (__mchp_sqrt)
c:/microchip/xc32/v1.31/bin/../lib/gcc/pic32mx/4.5.2/../../../../pic32mx/lib\libpic32.a(errno.o)
                              c:/microchip/xc32/v1.31/bin/../lib/gcc/pic32mx/4.5.2/../../../../pic32mx/lib\libm.a(w_sqrtf.o) (errno)
c:/microchip/xc32/v1.31/bin/../lib/gcc/pic32mx/4.5.2/../../../../pic32mx/lib\libpic32.a(isinf.o)
                              c:/microchip/xc32/v1.31/bin/../lib/gcc/pic32mx/4.5.2/../../../../pic32mx/lib\libm.a(w_ldexp.o) (isinfl)
c:/microchip/xc32/v1.31/bin/../lib/gcc/pic32mx/4.5.2/../../../../pic32mx/lib\libc.a(itoa.o)
                              build/default/debug/src/app/app_tasks/g_code.o (itoa)
c:/microchip/xc32/v1.31/bin/../lib/gcc/pic32mx/4.5.2/../../../../pic32mx/lib\libe.a(_unorddf2.o)
                              c:/microchip/xc32/v1.31/bin/../lib/gcc/pic32mx/4.5.2/../../../../pic32mx/lib\libpic32.a(isinf.o) (__unorddf2)

Allocating common symbols
Common symbol       size              file

intValue            0x4               build/default/debug/src/app/app_tasks/g_code.o
timer2ActiveAxis    0x1               build/default/debug/src/app/system_config/pic32_mx/system_interrupt.o
axisCompletedCount  0x1               build/default/debug/src/app/system_config/pic32_mx/system_interrupt.o
timer3AxisCount     0x1               build/default/debug/src/app/system_config/pic32_mx/system_interrupt.o
temp                0x4               build/default/debug/src/bsp/cnc_rev_00/bsp_sys_init.o
pagebuff            0x1000            build/default/debug/src/app/app_tasks/eeprom.o
timer2AxisCount     0x1               build/default/debug/src/app/system_config/pic32_mx/system_interrupt.o
timer4AxisCount     0x1               build/default/debug/src/app/system_config/pic32_mx/system_interrupt.o
timer_counter       0x1               build/default/debug/src/app/app.o
dataEEFlags         0x4               build/default/debug/src/app/app_tasks/dee_emulation_pic32.o
instruction         0x100             build/default/debug/src/app/app.o
gcode               0x38              build/default/debug/src/app/app_tasks/g_code.o
rx_Fifo             0x64              build/default/debug/src/app/app.o
settings            0x40              build/default/debug/src/app/app_tasks/settings.o
timerSteps          0xc               build/default/debug/src/app/system_config/pic32_mx/system_interrupt.o
value_cmd           0x20              build/default/debug/src/app/app_tasks/g_code.o
newLine             0xff              build/default/debug/src/app/app.o
offset              0xc               build/default/debug/src/app/app_tasks/g_code.o
databuff            0x200             build/default/debug/src/app/app_tasks/eeprom.o
float_value         0x8               build/default/debug/src/app/app_tasks/g_code.o
sys                 0x14              build/default/debug/src/app/main.o
target              0x80              build/default/debug/src/app/app_tasks/g_code.o
timer3ActiveAxis    0x1               build/default/debug/src/app/system_config/pic32_mx/system_interrupt.o
command             0x8               build/default/debug/src/app/app_tasks/g_code.o
milliSecondCount    0x4               build/default/debug/src/bsp/cnc_rev_00/bsp_sys_init.o
timer4ActiveAxis    0x1               build/default/debug/src/app/system_config/pic32_mx/system_interrupt.o
appObject           0x4               build/default/debug/src/app/app.o
inputType           0x4               build/default/debug/src/app/app_tasks/g_code.o

Microchip PIC32 Memory-Usage Report

kseg0 Program-Memory Usage
section                    address  length [bytes]      (dec)  Description
-------                 ----------  -------------------------  -----------
.rodata                 0x9d000000         0x3000       12288  Read-only const 
.text                   0x9d003000         0xfa1c       64028  App's exec code 
.rodata                 0x9d012a1c          0x7d4        2004  Read-only const 
.text                   0x9d0131f0          0x6e8        1768  App's exec code 
.rodata                 0x9d0138d8          0x6b8        1720  Read-only const 
.text                   0x9d013f90          0xb84        2948  App's exec code 
.text.dreml             0x9d014b14          0x480        1152   
.text.hypotl            0x9d014f94          0x40c        1036   
.text                   0x9d0153a0          0x79c        1948  App's exec code 
.dinit                  0x9d015b3c          0x340         832   
.text                   0x9d015e7c          0x33c         828  App's exec code 
.text.atan2f            0x9d0161b8          0x318         792   
.text                   0x9d0164d0          0x66c        1644  App's exec code 
.text.logbl             0x9d016b3c          0x120         288   
.text                   0x9d016c5c          0x118         280  App's exec code 
.text._NVMOperation     0x9d016d74          0x114         276   
.text                   0x9d016e88          0x21c         540  App's exec code 
.text.general_exception 0x9d0170a4           0xdc         220   
.text                   0x9d017180          0x204         516  App's exec code 
.text.isinf             0x9d017384           0x8c         140   
.text.isinff            0x9d017410           0x8c         140   
.text.UARTEnable        0x9d01749c           0x80         128   
.text.utoa              0x9d01751c           0x68         104   
.text.__unorddf2        0x9d017584           0x68         104   
.text.sqrt              0x9d0175ec           0x64         100   
.rodata                 0x9d017650           0x60          96  Read-only const 
.text.copysign          0x9d0176b0           0x60          96   
.text.copysignf         0x9d017710           0x60          96   
.text.ldexp             0x9d017770           0x60          96   
.text.UARTSetDataRate   0x9d0177d0           0x5c          92   
.rodata                 0x9d01782c           0x54          84  Read-only const 
.text.INTEnable         0x9d017880           0x50          80   
.text.sqrtf             0x9d0178d0           0x50          80   
.text.main_entry        0x9d017920           0x4c          76   
.text                   0x9d01796c           0x90         144  App's exec code 
.text.UARTGetDataRate   0x9d0179fc           0x40          64   
.text.itoa              0x9d017a3c           0x40          64   
.text.PORTSetPinsDigita 0x9d017a7c           0x3c          60   
.text.PORTSetPinsDigita 0x9d017ab8           0x3c          60   
.text.UARTConfigure     0x9d017af4           0x3c          60   
.text.UARTSetAddress    0x9d017b30           0x3c          60   
.text.INTSetVectorPrior 0x9d017b6c           0x38          56   
.text.INTSetVectorSubPr 0x9d017ba4           0x38          56   
.text.UARTWatchForAddre 0x9d017bdc           0x38          56   
.text._bootstrap_except 0x9d017c14           0x38          56   
.text._general_exceptio 0x9d017c4c           0x38          56   
.text.NVMWriteWord      0x9d017c84           0x34          52   
.text.copysignl         0x9d017cb8           0x34          52   
.text.finite            0x9d017cec           0x34          52   
.text.finitef           0x9d017d20           0x34          52   
.text.isnan             0x9d017d54           0x34          52   
.text.isnanf            0x9d017d88           0x34          52   
.rodata                 0x9d017dbc           0x30          48  Read-only const 
.text                   0x9d017dec           0x30          48  App's exec code 
.text.INTConfigureSyste 0x9d017e1c           0x30          48   
.vector_default         0x9d017e4c           0x30          48   
.text                   0x9d017e7c           0x2c          44  App's exec code 
.text.INTGetVectorPrior 0x9d017ea8           0x2c          44   
.text.INTGetVectorSubPr 0x9d017ed4           0x2c          44   
.text.NVMErasePage      0x9d017f00           0x2c          44   
.text.INTClearFlag      0x9d017f2c           0x28          40   
.text.INTSetFlag        0x9d017f54           0x28          40   
.text.INTGetFlag        0x9d017f7c           0x28          40   
.text.INTGetEnable      0x9d017fa4           0x28          40   
.text.UARTSetFifoMode   0x9d017fcc           0x28          40   
.text.UARTSetLineContro 0x9d017ff4           0x28          40   
.rodata                 0x9d018020           0x28          40  Read-only const 
.text.hypot             0x9d018048           0x28          40   
.text.hypotf            0x9d018070           0x28          40   
.rodata                 0x9d018098           0x28          40  Read-only const 
.text.logb              0x9d0180c0           0x28          40   
.text.logbf             0x9d0180e8           0x28          40   
.text.drem              0x9d018110           0x28          40   
.text.dremf             0x9d018138           0x28          40   
.text.PORTReadBits      0x9d018160           0x24          36   
.text.PORTClearBits     0x9d018184           0x24          36   
.text.PORTSetBits       0x9d0181a8           0x24          36   
.text.isnanl            0x9d0181cc           0x24          36   
.text.isinfl            0x9d0181f0           0x24          36   
.rodata                 0x9d018214           0x20          32  Read-only const 
.rodata                 0x9d018238           0x58          88  Read-only const 
.text.INTRestoreInterru 0x9d018290           0x1c          28   
.text.finitel           0x9d0182ac           0x1c          28   
.text.CheKseg0CacheOff  0x9d0182c8           0x18          24   
.text.CheKseg0CacheOn   0x9d0182e0           0x18          24   
.rodata                 0x9d0182f8           0x18          24  Read-only const 
.text                   0x9d018310           0x18          24  App's exec code 
.rodata                 0x9d018328            0xc          12  Read-only const 
.text.OpenCoreTimer     0x9d018334            0xc          12   
.text.__exception_handl 0x9d018340            0xc          12   
.text.INTEnableInterrup 0x9d01834c            0x8           8   
.text.INTDisableInterru 0x9d018354            0x8           8   
.text._on_reset         0x9d01835c            0x8           8   
.text._on_bootstrap     0x9d018364            0x8           8   
.rodata                 0x9d018370            0x8           8  Read-only const 
      Total kseg0_program_mem used  :     0x1836c       99180  18.9% of 0x80000

kseg0 Boot-Memory Usage
section                    address  length [bytes]      (dec)  Description
-------                 ----------  -------------------------  -----------
         Total kseg0_boot_mem used  :           0           0  <1% of 0x970

Exception-Memory Usage 
section                    address  length [bytes]      (dec)  Description
-------                 ----------  -------------------------  -----------
.app_excpt              0x9fc01180           0x10          16  General-Exception 
.vector_0               0x9fc01200            0x8           8  Interrupt Vector 0 
.vector_1               0x9fc01220            0x8           8  Interrupt Vector 1 
.vector_2               0x9fc01240            0x8           8  Interrupt Vector 2 
.vector_3               0x9fc01260            0x8           8  Interrupt Vector 3 
.vector_4               0x9fc01280            0x8           8  Interrupt Vector 4 
.vector_5               0x9fc012a0            0x8           8  Interrupt Vector 5 
.vector_6               0x9fc012c0            0x8           8  Interrupt Vector 6 
.vector_7               0x9fc012e0            0x8           8  Interrupt Vector 7 
.vector_8               0x9fc01300            0x8           8  Interrupt Vector 8 
.vector_9               0x9fc01320            0x8           8  Interrupt Vector 9 
.vector_10              0x9fc01340            0x8           8  Interrupt Vector 10 
.vector_11              0x9fc01360            0x8           8  Interrupt Vector 11 
.vector_12              0x9fc01380            0x8           8  Interrupt Vector 12 
.vector_13              0x9fc013a0            0x8           8  Interrupt Vector 13 
.vector_14              0x9fc013c0            0x8           8  Interrupt Vector 14 
.vector_15              0x9fc013e0            0x8           8  Interrupt Vector 15 
.vector_16              0x9fc01400            0x8           8  Interrupt Vector 16 
.vector_17              0x9fc01420            0x8           8  Interrupt Vector 17 
.vector_18              0x9fc01440            0x8           8  Interrupt Vector 18 
.vector_19              0x9fc01460            0x8           8  Interrupt Vector 19 
.vector_20              0x9fc01480            0x8           8  Interrupt Vector 20 
.vector_21              0x9fc014a0            0x8           8  Interrupt Vector 21 
.vector_22              0x9fc014c0            0x8           8  Interrupt Vector 22 
.vector_23              0x9fc014e0            0x8           8  Interrupt Vector 23 
.vector_24              0x9fc01500            0x8           8  Interrupt Vector 24 
.vector_25              0x9fc01520            0x8           8  Interrupt Vector 25 
.vector_26              0x9fc01540            0x8           8  Interrupt Vector 26 
.vector_27              0x9fc01560            0x8           8  Interrupt Vector 27 
.vector_28              0x9fc01580            0x8           8  Interrupt Vector 28 
.vector_29              0x9fc015a0            0x8           8  Interrupt Vector 29 
.vector_30              0x9fc015c0            0x8           8  Interrupt Vector 30 
.vector_31              0x9fc015e0            0x8           8  Interrupt Vector 31 
.vector_32              0x9fc01600            0x8           8  Interrupt Vector 32 
.vector_33              0x9fc01620            0x8           8  Interrupt Vector 33 
.vector_34              0x9fc01640            0x8           8  Interrupt Vector 34 
.vector_35              0x9fc01660            0x8           8  Interrupt Vector 35 
.vector_36              0x9fc01680            0x8           8  Interrupt Vector 36 
.vector_37              0x9fc016a0            0x8           8  Interrupt Vector 37 
.vector_38              0x9fc016c0            0x8           8  Interrupt Vector 38 
.vector_39              0x9fc016e0            0x8           8  Interrupt Vector 39 
.vector_40              0x9fc01700            0x8           8  Interrupt Vector 40 
.vector_41              0x9fc01720            0x8           8  Interrupt Vector 41 
.vector_42              0x9fc01740            0x8           8  Interrupt Vector 42 
.vector_43              0x9fc01760            0x8           8  Interrupt Vector 43 
.vector_44              0x9fc01780            0x8           8  Interrupt Vector 44 
.vector_45              0x9fc017a0            0x8           8  Interrupt Vector 45 
.vector_46              0x9fc017c0            0x8           8  Interrupt Vector 46 
.vector_47              0x9fc017e0            0x8           8  Interrupt Vector 47 
.vector_48              0x9fc01800            0x8           8  Interrupt Vector 48 
.vector_49              0x9fc01820            0x8           8  Interrupt Vector 49 
.vector_50              0x9fc01840            0x8           8  Interrupt Vector 50 
.vector_51              0x9fc01860            0x8           8  Interrupt Vector 51 
.vector_52              0x9fc01880            0x8           8  Interrupt Vector 52 
.vector_53              0x9fc018a0            0x8           8  Interrupt Vector 53 
.vector_54              0x9fc018c0            0x8           8  Interrupt Vector 54 
.vector_55              0x9fc018e0            0x8           8  Interrupt Vector 55 
.vector_56              0x9fc01900            0x8           8  Interrupt Vector 56 
.vector_57              0x9fc01920            0x8           8  Interrupt Vector 57 
.vector_58              0x9fc01940            0x8           8  Interrupt Vector 58 
.vector_59              0x9fc01960            0x8           8  Interrupt Vector 59 
.vector_60              0x9fc01980            0x8           8  Interrupt Vector 60 
.vector_61              0x9fc019a0            0x8           8  Interrupt Vector 61 
.vector_62              0x9fc019c0            0x8           8  Interrupt Vector 62 
.vector_63              0x9fc019e0            0x8           8  Interrupt Vector 63 
          Total exception_mem used  :       0x210         528  12.9% of 0x1000

kseg1 Boot-Memory Usage
section                    address  length [bytes]      (dec)  Description
-------                 ----------  -------------------------  -----------
.reset                  0xbfc00000          0x1e8         488  Reset handler 
.bev_excpt              0xbfc00380           0x10          16  BEV-Exception 
.dbg_excpt              0xbfc00480            0x8           8   
         Total kseg1_boot_mem used  :       0x200         512  43.8% of 0x490
        --------------------------------------------------------------------------
         Total Program Memory used  :     0x1877c      100220  18.8% of 0x81e00
        --------------------------------------------------------------------------


kseg1 Data-Memory Usage
section                    address  length [bytes]      (dec)  Description
-------                 ----------  -------------------------  -----------
.dbg_data               0xa0000000          0x200         512  Memory reserved for debugger exec 
.sdata                  0xa0000200           0x50          80  Small init data 
.sbss                   0xa0000250           0x94         148  Small uninit data 
.bss                    0xa00002e4         0x15a8        5544  Uninitialized data 
.bss                    0xa000188c          0x694        1684  Uninitialized data 
.data                   0xa0001f20          0x184         388  Initialized data 
.bss                    0xa00020a4           0x6c         108  Uninitialized data 
.data                   0xa0002110           0x34          52  Initialized data 
.data.math_errhandling_ 0xa0002144            0x4           4   
         Total kseg1_data_mem used  :      0x2148        8520  6.5% of 0x20000
        --------------------------------------------------------------------------
            Total Data Memory used  :      0x2148        8520  6.5% of 0x20000
        --------------------------------------------------------------------------


Dynamic Data-Memory Reservation
section                    address  length [bytes]      (dec)  Description
-------                 ----------  -------------------------  -----------
heap                    0xa0002150           0x10          16  Reserved for heap 
stack                   0xa0002178        0x1de80      122496  Reserved for stack 

        --------------------------------------------------------------------------

Discarded input sections

 .reginfo       0x00000000       0x18 build/default/debug/src/app/app_tasks/program_planner.o
 .reginfo       0x00000000       0x18 build/default/debug/src/app/app_tasks/g_code.o
 .reginfo       0x00000000       0x18 build/default/debug/src/app/app_tasks/motion.o
 .reginfo       0x00000000       0x18 build/default/debug/src/app/app_tasks/nuts_bolts.o
 .reginfo       0x00000000       0x18 build/default/debug/src/app/app_tasks/settings.o
 .reginfo       0x00000000       0x18 build/default/debug/src/app/app_tasks/eeprom.o
 .reginfo       0x00000000       0x18 build/default/debug/src/app/app_tasks/dee_emulation_pic32.o
 .reginfo       0x00000000       0x18 build/default/debug/src/app/app_tasks/report.o
 .reginfo       0x00000000       0x18 build/default/debug/src/app/app_tasks/stepper.o
 .reginfo       0x00000000       0x18 build/default/debug/src/app/system_config/pic32_mx/system_init.o
 .reginfo       0x00000000       0x18 build/default/debug/src/app/system_config/pic32_mx/system_interrupt.o
 .reginfo       0x00000000       0x18 build/default/debug/src/app/system_config/pic32_mx/system_task.o
 .reginfo       0x00000000       0x18 build/default/debug/src/app/main.o
 .reginfo       0x00000000       0x18 build/default/debug/src/app/app.o
 .reginfo       0x00000000       0x18 build/default/debug/src/bsp/cnc_rev_00/bsp_sys_init.o
 .reginfo       0x00000000       0x18 build/default/debug/src/app/app_tasks/protocol.o
 .reginfo       0x00000000       0x18 ..\..\..\..\..\..\microchip\xc32\v1.31\pic32mx\lib\libmchp_peripheral_32MX795F512L.a(open_core_timer_lib.o)
 .pdr           0x00000000       0x20 ..\..\..\..\..\..\microchip\xc32\v1.31\pic32mx\lib\libmchp_peripheral_32MX795F512L.a(open_core_timer_lib.o)
 .reginfo       0x00000000       0x18 ..\..\..\..\..\..\microchip\xc32\v1.31\pic32mx\lib\libmchp_peripheral_32MX795F512L.a(pcache.o)
 .pdr           0x00000000       0x40 ..\..\..\..\..\..\microchip\xc32\v1.31\pic32mx\lib\libmchp_peripheral_32MX795F512L.a(pcache.o)
 .reginfo       0x00000000       0x18 ..\..\..\..\..\..\microchip\xc32\v1.31\pic32mx\lib\libmchp_peripheral_32MX795F512L.a(int_configure_system_lib.o)
 .pdr           0x00000000       0x20 ..\..\..\..\..\..\microchip\xc32\v1.31\pic32mx\lib\libmchp_peripheral_32MX795F512L.a(int_configure_system_lib.o)
 .reginfo       0x00000000       0x18 ..\..\..\..\..\..\microchip\xc32\v1.31\pic32mx\lib\libmchp_peripheral_32MX795F512L.a(int_enable_interrupts_lib.o)
 .pdr           0x00000000       0x20 ..\..\..\..\..\..\microchip\xc32\v1.31\pic32mx\lib\libmchp_peripheral_32MX795F512L.a(int_enable_interrupts_lib.o)
 .reginfo       0x00000000       0x18 ..\..\..\..\..\..\microchip\xc32\v1.31\pic32mx\lib\libmchp_peripheral_32MX795F512L.a(int_disable_interrupts_lib.o)
 .pdr           0x00000000       0x20 ..\..\..\..\..\..\microchip\xc32\v1.31\pic32mx\lib\libmchp_peripheral_32MX795F512L.a(int_disable_interrupts_lib.o)
 .reginfo       0x00000000       0x18 ..\..\..\..\..\..\microchip\xc32\v1.31\pic32mx\lib\libmchp_peripheral_32MX795F512L.a(int_restore_interrupts_lib.o)
 .pdr           0x00000000       0x20 ..\..\..\..\..\..\microchip\xc32\v1.31\pic32mx\lib\libmchp_peripheral_32MX795F512L.a(int_restore_interrupts_lib.o)
 .reginfo       0x00000000       0x18 ..\..\..\..\..\..\microchip\xc32\v1.31\pic32mx\lib\libmchp_peripheral_32MX795F512L.a(int_tbl_lib.o)
 .pdr           0x00000000      0x120 ..\..\..\..\..\..\microchip\xc32\v1.31\pic32mx\lib\libmchp_peripheral_32MX795F512L.a(int_tbl_lib.o)
 .reginfo       0x00000000       0x18 ..\..\..\..\..\..\microchip\xc32\v1.31\pic32mx\lib\libmchp_peripheral_32MX795F512L.a(nvm_erase_page_lib.o)
 .pdr           0x00000000       0x20 ..\..\..\..\..\..\microchip\xc32\v1.31\pic32mx\lib\libmchp_peripheral_32MX795F512L.a(nvm_erase_page_lib.o)
 .reginfo       0x00000000       0x18 ..\..\..\..\..\..\microchip\xc32\v1.31\pic32mx\lib\libmchp_peripheral_32MX795F512L.a(nvm_operation_lib.o)
 .pdr           0x00000000       0x20 ..\..\..\..\..\..\microchip\xc32\v1.31\pic32mx\lib\libmchp_peripheral_32MX795F512L.a(nvm_operation_lib.o)
 .reginfo       0x00000000       0x18 ..\..\..\..\..\..\microchip\xc32\v1.31\pic32mx\lib\libmchp_peripheral_32MX795F512L.a(nvm_write_word_lib.o)
 .pdr           0x00000000       0x20 ..\..\..\..\..\..\microchip\xc32\v1.31\pic32mx\lib\libmchp_peripheral_32MX795F512L.a(nvm_write_word_lib.o)
 .reginfo       0x00000000       0x18 ..\..\..\..\..\..\microchip\xc32\v1.31\pic32mx\lib\libmchp_peripheral_32MX795F512L.a(port_set_pins_digital_in_lib.o)
 .pdr           0x00000000       0x20 ..\..\..\..\..\..\microchip\xc32\v1.31\pic32mx\lib\libmchp_peripheral_32MX795F512L.a(port_set_pins_digital_in_lib.o)
 .reginfo       0x00000000       0x18 ..\..\..\..\..\..\microchip\xc32\v1.31\pic32mx\lib\libmchp_peripheral_32MX795F512L.a(port_set_pins_digital_out_lib.o)
 .pdr           0x00000000       0x20 ..\..\..\..\..\..\microchip\xc32\v1.31\pic32mx\lib\libmchp_peripheral_32MX795F512L.a(port_set_pins_digital_out_lib.o)
 .reginfo       0x00000000       0x18 ..\..\..\..\..\..\microchip\xc32\v1.31\pic32mx\lib\libmchp_peripheral_32MX795F512L.a(port_read_bits_lib.o)
 .pdr           0x00000000       0x20 ..\..\..\..\..\..\microchip\xc32\v1.31\pic32mx\lib\libmchp_peripheral_32MX795F512L.a(port_read_bits_lib.o)
 .reginfo       0x00000000       0x18 ..\..\..\..\..\..\microchip\xc32\v1.31\pic32mx\lib\libmchp_peripheral_32MX795F512L.a(port_clear_bits_lib.o)
 .pdr           0x00000000       0x20 ..\..\..\..\..\..\microchip\xc32\v1.31\pic32mx\lib\libmchp_peripheral_32MX795F512L.a(port_clear_bits_lib.o)
 .reginfo       0x00000000       0x18 ..\..\..\..\..\..\microchip\xc32\v1.31\pic32mx\lib\libmchp_peripheral_32MX795F512L.a(port_set_bits_lib.o)
 .pdr           0x00000000       0x20 ..\..\..\..\..\..\microchip\xc32\v1.31\pic32mx\lib\libmchp_peripheral_32MX795F512L.a(port_set_bits_lib.o)
 .reginfo       0x00000000       0x18 ..\..\..\..\..\..\microchip\xc32\v1.31\pic32mx\lib\libmchp_peripheral_32MX795F512L.a(_ports_tbl_libp.o)
 .pdr           0x00000000        0x0 ..\..\..\..\..\..\microchip\xc32\v1.31\pic32mx\lib\libmchp_peripheral_32MX795F512L.a(_ports_tbl_libp.o)
 .reginfo       0x00000000       0x18 ..\..\..\..\..\..\microchip\xc32\v1.31\pic32mx\lib\libmchp_peripheral_32MX795F512L.a(uart_lib.o)
 .pdr           0x00000000      0x100 ..\..\..\..\..\..\microchip\xc32\v1.31\pic32mx\lib\libmchp_peripheral_32MX795F512L.a(uart_lib.o)
 .reginfo       0x00000000       0x18 c:/microchip/xc32/v1.31/bin/../lib/gcc/pic32mx/4.5.2/../../../../pic32mx/lib/./proc/32MX795F512L\default_isr_vectors.o
 .discard       0x00000000      0x100 c:/microchip/xc32/v1.31/bin/../lib/gcc/pic32mx/4.5.2/../../../../pic32mx/lib/./proc/32MX795F512L\default_isr_vectors.o
 .reginfo       0x00000000       0x18 c:/microchip/xc32/v1.31/bin/../lib/gcc/pic32mx/4.5.2/../../../../pic32mx/lib/./proc/32MX795F512L\processor.o
 .reginfo       0x00000000       0x18 c:/microchip/xc32/v1.31/bin/../lib/gcc/pic32mx/4.5.2\libgcc.a(floatunsisf.o)
 .reginfo       0x00000000       0x18 c:/microchip/xc32/v1.31/bin/../lib/gcc/pic32mx/4.5.2/../../../../pic32mx/lib\libpic32.a(memcpy.o)
 .reginfo       0x00000000       0x18 c:/microchip/xc32/v1.31/bin/../lib/gcc/pic32mx/4.5.2/../../../../pic32mx/lib\libpic32.a(memset.o)
 .reginfo       0x00000000       0x18 c:/microchip/xc32/v1.31/bin/../lib/gcc/pic32mx/4.5.2/../../../../pic32mx/lib\libpic32.a(default-bootstrap-exception-handler.o)
 .reginfo       0x00000000       0x18 c:/microchip/xc32/v1.31/bin/../lib/gcc/pic32mx/4.5.2/../../../../pic32mx/lib\libpic32.a(default-on-reset.o)
 .reginfo       0x00000000       0x18 c:/microchip/xc32/v1.31/bin/../lib/gcc/pic32mx/4.5.2/../../../../pic32mx/lib\libpic32.a(default-on-bootstrap.o)
 .reginfo       0x00000000       0x18 c:/microchip/xc32/v1.31/bin/../lib/gcc/pic32mx/4.5.2/../../../../pic32mx/lib\libpic32.a(default-nmi-handler.o)
 .reginfo       0x00000000       0x18 c:/microchip/xc32/v1.31/bin/../lib/gcc/pic32mx/4.5.2/../../../../pic32mx/lib\libpic32.a(pic32_software_reset.o)
 .reginfo       0x00000000       0x18 c:/microchip/xc32/v1.31/bin/../lib/gcc/pic32mx/4.5.2/../../../../pic32mx/lib\libpic32.a(general-exception.o)
 .reginfo       0x00000000       0x18 c:/microchip/xc32/v1.31/bin/../lib/gcc/pic32mx/4.5.2/../../../../pic32mx/lib\libpic32.a(vector1.o)
 .reginfo       0x00000000       0x18 c:/microchip/xc32/v1.31/bin/../lib/gcc/pic32mx/4.5.2/../../../../pic32mx/lib\libpic32.a(vector2.o)
 .reginfo       0x00000000       0x18 c:/microchip/xc32/v1.31/bin/../lib/gcc/pic32mx/4.5.2/../../../../pic32mx/lib\libpic32.a(vector3.o)
 .reginfo       0x00000000       0x18 c:/microchip/xc32/v1.31/bin/../lib/gcc/pic32mx/4.5.2/../../../../pic32mx/lib\libpic32.a(vector5.o)
 .reginfo       0x00000000       0x18 c:/microchip/xc32/v1.31/bin/../lib/gcc/pic32mx/4.5.2/../../../../pic32mx/lib\libpic32.a(vector6.o)
 .reginfo       0x00000000       0x18 c:/microchip/xc32/v1.31/bin/../lib/gcc/pic32mx/4.5.2/../../../../pic32mx/lib\libpic32.a(vector9.o)
 .reginfo       0x00000000       0x18 c:/microchip/xc32/v1.31/bin/../lib/gcc/pic32mx/4.5.2/../../../../pic32mx/lib\libpic32.a(vector10.o)
 .reginfo       0x00000000       0x18 c:/microchip/xc32/v1.31/bin/../lib/gcc/pic32mx/4.5.2/../../../../pic32mx/lib\libpic32.a(vector13.o)
 .reginfo       0x00000000       0x18 c:/microchip/xc32/v1.31/bin/../lib/gcc/pic32mx/4.5.2/../../../../pic32mx/lib\libpic32.a(vector14.o)
 .reginfo       0x00000000       0x18 c:/microchip/xc32/v1.31/bin/../lib/gcc/pic32mx/4.5.2/../../../../pic32mx/lib\libpic32.a(vector15.o)
 .reginfo       0x00000000       0x18 c:/microchip/xc32/v1.31/bin/../lib/gcc/pic32mx/4.5.2/../../../../pic32mx/lib\libpic32.a(vector17.o)
 .reginfo       0x00000000       0x18 c:/microchip/xc32/v1.31/bin/../lib/gcc/pic32mx/4.5.2/../../../../pic32mx/lib\libpic32.a(vector18.o)
 .reginfo       0x00000000       0x18 c:/microchip/xc32/v1.31/bin/../lib/gcc/pic32mx/4.5.2/../../../../pic32mx/lib\libpic32.a(vector19.o)
 .reginfo       0x00000000       0x18 c:/microchip/xc32/v1.31/bin/../lib/gcc/pic32mx/4.5.2/../../../../pic32mx/lib\libpic32.a(vector20.o)
 .reginfo       0x00000000       0x18 c:/microchip/xc32/v1.31/bin/../lib/gcc/pic32mx/4.5.2/../../../../pic32mx/lib\libpic32.a(vector21.o)
 .reginfo       0x00000000       0x18 c:/microchip/xc32/v1.31/bin/../lib/gcc/pic32mx/4.5.2/../../../../pic32mx/lib\libpic32.a(vector22.o)
 .reginfo       0x00000000       0x18 c:/microchip/xc32/v1.31/bin/../lib/gcc/pic32mx/4.5.2/../../../../pic32mx/lib\libpic32.a(vector23.o)
 .reginfo       0x00000000       0x18 c:/microchip/xc32/v1.31/bin/../lib/gcc/pic32mx/4.5.2/../../../../pic32mx/lib\libpic32.a(vector24.o)
 .reginfo       0x00000000       0x18 c:/microchip/xc32/v1.31/bin/../lib/gcc/pic32mx/4.5.2/../../../../pic32mx/lib\libpic32.a(vector25.o)
 .reginfo       0x00000000       0x18 c:/microchip/xc32/v1.31/bin/../lib/gcc/pic32mx/4.5.2/../../../../pic32mx/lib\libpic32.a(vector26.o)
 .reginfo       0x00000000       0x18 c:/microchip/xc32/v1.31/bin/../lib/gcc/pic32mx/4.5.2/../../../../pic32mx/lib\libpic32.a(vector27.o)
 .reginfo       0x00000000       0x18 c:/microchip/xc32/v1.31/bin/../lib/gcc/pic32mx/4.5.2/../../../../pic32mx/lib\libpic32.a(vector28.o)
 .reginfo       0x00000000       0x18 c:/microchip/xc32/v1.31/bin/../lib/gcc/pic32mx/4.5.2/../../../../pic32mx/lib\libpic32.a(vector29.o)
 .reginfo       0x00000000       0x18 c:/microchip/xc32/v1.31/bin/../lib/gcc/pic32mx/4.5.2/../../../../pic32mx/lib\libpic32.a(vector30.o)
 .reginfo       0x00000000       0x18 c:/microchip/xc32/v1.31/bin/../lib/gcc/pic32mx/4.5.2/../../../../pic32mx/lib\libpic32.a(vector31.o)
 .reginfo       0x00000000       0x18 c:/microchip/xc32/v1.31/bin/../lib/gcc/pic32mx/4.5.2/../../../../pic32mx/lib\libpic32.a(vector33.o)
 .reginfo       0x00000000       0x18 c:/microchip/xc32/v1.31/bin/../lib/gcc/pic32mx/4.5.2/../../../../pic32mx/lib\libpic32.a(vector34.o)
 .reginfo       0x00000000       0x18 c:/microchip/xc32/v1.31/bin/../lib/gcc/pic32mx/4.5.2/../../../../pic32mx/lib\libpic32.a(vector35.o)
 .reginfo       0x00000000       0x18 c:/microchip/xc32/v1.31/bin/../lib/gcc/pic32mx/4.5.2/../../../../pic32mx/lib\libpic32.a(vector36.o)
 .reginfo       0x00000000       0x18 c:/microchip/xc32/v1.31/bin/../lib/gcc/pic32mx/4.5.2/../../../../pic32mx/lib\libpic32.a(vector37.o)
 .reginfo       0x00000000       0x18 c:/microchip/xc32/v1.31/bin/../lib/gcc/pic32mx/4.5.2/../../../../pic32mx/lib\libpic32.a(vector38.o)
 .reginfo       0x00000000       0x18 c:/microchip/xc32/v1.31/bin/../lib/gcc/pic32mx/4.5.2/../../../../pic32mx/lib\libpic32.a(vector39.o)
 .reginfo       0x00000000       0x18 c:/microchip/xc32/v1.31/bin/../lib/gcc/pic32mx/4.5.2/../../../../pic32mx/lib\libpic32.a(vector40.o)
 .reginfo       0x00000000       0x18 c:/microchip/xc32/v1.31/bin/../lib/gcc/pic32mx/4.5.2/../../../../pic32mx/lib\libpic32.a(vector41.o)
 .reginfo       0x00000000       0x18 c:/microchip/xc32/v1.31/bin/../lib/gcc/pic32mx/4.5.2/../../../../pic32mx/lib\libpic32.a(vector42.o)
 .reginfo       0x00000000       0x18 c:/microchip/xc32/v1.31/bin/../lib/gcc/pic32mx/4.5.2/../../../../pic32mx/lib\libpic32.a(vector43.o)
 .reginfo       0x00000000       0x18 c:/microchip/xc32/v1.31/bin/../lib/gcc/pic32mx/4.5.2/../../../../pic32mx/lib\libpic32.a(vector44.o)
 .reginfo       0x00000000       0x18 c:/microchip/xc32/v1.31/bin/../lib/gcc/pic32mx/4.5.2/../../../../pic32mx/lib\libpic32.a(vector45.o)
 .reginfo       0x00000000       0x18 c:/microchip/xc32/v1.31/bin/../lib/gcc/pic32mx/4.5.2/../../../../pic32mx/lib\libpic32.a(vector46.o)
 .reginfo       0x00000000       0x18 c:/microchip/xc32/v1.31/bin/../lib/gcc/pic32mx/4.5.2/../../../../pic32mx/lib\libpic32.a(vector47.o)
 .reginfo       0x00000000       0x18 c:/microchip/xc32/v1.31/bin/../lib/gcc/pic32mx/4.5.2/../../../../pic32mx/lib\libpic32.a(vector48.o)
 .reginfo       0x00000000       0x18 c:/microchip/xc32/v1.31/bin/../lib/gcc/pic32mx/4.5.2/../../../../pic32mx/lib\libpic32.a(vector49.o)
 .reginfo       0x00000000       0x18 c:/microchip/xc32/v1.31/bin/../lib/gcc/pic32mx/4.5.2/../../../../pic32mx/lib\libpic32.a(vector50.o)
 .reginfo       0x00000000       0x18 c:/microchip/xc32/v1.31/bin/../lib/gcc/pic32mx/4.5.2/../../../../pic32mx/lib\libpic32.a(vector51.o)
 .reginfo       0x00000000       0x18 c:/microchip/xc32/v1.31/bin/../lib/gcc/pic32mx/4.5.2/../../../../pic32mx/lib\libpic32.a(vector52.o)
 .reginfo       0x00000000       0x18 c:/microchip/xc32/v1.31/bin/../lib/gcc/pic32mx/4.5.2/../../../../pic32mx/lib\libpic32.a(vector53.o)
 .reginfo       0x00000000       0x18 c:/microchip/xc32/v1.31/bin/../lib/gcc/pic32mx/4.5.2/../../../../pic32mx/lib\libpic32.a(vector54.o)
 .reginfo       0x00000000       0x18 c:/microchip/xc32/v1.31/bin/../lib/gcc/pic32mx/4.5.2/../../../../pic32mx/lib\libpic32.a(vector55.o)
 .reginfo       0x00000000       0x18 c:/microchip/xc32/v1.31/bin/../lib/gcc/pic32mx/4.5.2/../../../../pic32mx/lib\libpic32.a(vector56.o)
 .reginfo       0x00000000       0x18 c:/microchip/xc32/v1.31/bin/../lib/gcc/pic32mx/4.5.2/../../../../pic32mx/lib\libpic32.a(vector57.o)
 .reginfo       0x00000000       0x18 c:/microchip/xc32/v1.31/bin/../lib/gcc/pic32mx/4.5.2/../../../../pic32mx/lib\libpic32.a(vector58.o)
 .reginfo       0x00000000       0x18 c:/microchip/xc32/v1.31/bin/../lib/gcc/pic32mx/4.5.2/../../../../pic32mx/lib\libpic32.a(vector59.o)
 .reginfo       0x00000000       0x18 c:/microchip/xc32/v1.31/bin/../lib/gcc/pic32mx/4.5.2/../../../../pic32mx/lib\libpic32.a(vector60.o)
 .reginfo       0x00000000       0x18 c:/microchip/xc32/v1.31/bin/../lib/gcc/pic32mx/4.5.2/../../../../pic32mx/lib\libpic32.a(vector61.o)
 .reginfo       0x00000000       0x18 c:/microchip/xc32/v1.31/bin/../lib/gcc/pic32mx/4.5.2/../../../../pic32mx/lib\libpic32.a(vector62.o)
 .reginfo       0x00000000       0x18 c:/microchip/xc32/v1.31/bin/../lib/gcc/pic32mx/4.5.2/../../../../pic32mx/lib\libpic32.a(vector63.o)
 .reginfo       0x00000000       0x18 c:/microchip/xc32/v1.31/bin/../lib/gcc/pic32mx/4.5.2/../../../../pic32mx/lib\libpic32.a(default-general-exception-handler.o)
 .reginfo       0x00000000       0x18 c:/microchip/xc32/v1.31/bin/../lib/gcc/pic32mx/4.5.2/../../../../pic32mx/lib\libpic32.a(defaultinterrupt.o)
 .reginfo       0x00000000       0x18 c:/microchip/xc32/v1.31/bin/../lib/gcc/pic32mx/4.5.2/../../../../pic32mx/lib\libm.a(w_atan2f.o)
 .reginfo       0x00000000       0x18 c:/microchip/xc32/v1.31/bin/../lib/gcc/pic32mx/4.5.2/../../../../pic32mx/lib\libm.a(fparc32.o)
 .reginfo       0x00000000       0x18 c:/microchip/xc32/v1.31/bin/../lib/gcc/pic32mx/4.5.2/../../../../pic32mx/lib\libm.a(fpfloo32.o)
 .reginfo       0x00000000       0x18 c:/microchip/xc32/v1.31/bin/../lib/gcc/pic32mx/4.5.2/../../../../pic32mx/lib\libm.a(fpceil32.o)
 .reginfo       0x00000000       0x18 c:/microchip/xc32/v1.31/bin/../lib/gcc/pic32mx/4.5.2/../../../../pic32mx/lib\libm.a(dp32.o)
 .reginfo       0x00000000       0x18 c:/microchip/xc32/v1.31/bin/../lib/gcc/pic32mx/4.5.2/../../../../pic32mx/lib\libm.a(fpsqrt32.o)
 .reginfo       0x00000000       0x18 c:/microchip/xc32/v1.31/bin/../lib/gcc/pic32mx/4.5.2/../../../../pic32mx/lib\libm.a(w_sqrtf.o)
 .reginfo       0x00000000       0x18 c:/microchip/xc32/v1.31/bin/../lib/gcc/pic32mx/4.5.2/../../../../pic32mx/lib\libm.a(fp32.o)
 .reginfo       0x00000000       0x18 c:/microchip/xc32/v1.31/bin/../lib/gcc/pic32mx/4.5.2/../../../../pic32mx/lib\libm.a(fpcos32.o)
 .reginfo       0x00000000       0x18 c:/microchip/xc32/v1.31/bin/../lib/gcc/pic32mx/4.5.2/../../../../pic32mx/lib\libm.a(fpsin32.o)
 .reginfo       0x00000000       0x18 c:/microchip/xc32/v1.31/bin/../lib/gcc/pic32mx/4.5.2/../../../../pic32mx/lib\libm.a(fpreduct32.o)
 .reginfo       0x00000000       0x18 c:/microchip/xc32/v1.31/bin/../lib/gcc/pic32mx/4.5.2/../../../../pic32mx/lib\libm.a(sincof32.o)
 .reginfo       0x00000000       0x18 c:/microchip/xc32/v1.31/bin/../lib/gcc/pic32mx/4.5.2/../../../../pic32mx/lib\libm.a(s_lib_ver.o)
 .reginfo       0x00000000       0x18 c:/microchip/xc32/v1.31/bin/../lib/gcc/pic32mx/4.5.2/../../../../pic32mx/lib\libm.a(cabs.o)
 .reginfo       0x00000000       0x18 c:/microchip/xc32/v1.31/bin/../lib/gcc/pic32mx/4.5.2/../../../../pic32mx/lib\libm.a(support.o)
 .reginfo       0x00000000       0x18 c:/microchip/xc32/v1.31/bin/../lib/gcc/pic32mx/4.5.2/../../../../pic32mx/lib\libm.a(w_ldexp.o)
 .reginfo       0x00000000       0x18 c:/microchip/xc32/v1.31/bin/../lib/gcc/pic32mx/4.5.2/../../../../pic32mx/lib\libm.a(w_sqrt.o)
 .reginfo       0x00000000       0x18 c:/microchip/xc32/v1.31/bin/../lib/gcc/pic32mx/4.5.2/../../../../pic32mx/lib\libm.a(mod32.o)
 .reginfo       0x00000000       0x18 c:/microchip/xc32/v1.31/bin/../lib/gcc/pic32mx/4.5.2/../../../../pic32mx/lib\libm.a(sqrt32.o)
 .reginfo       0x00000000       0x18 c:/microchip/xc32/v1.31/bin/../lib/gcc/pic32mx/4.5.2/../../../../pic32mx/lib\libpic32.a(errno.o)
 .reginfo       0x00000000       0x18 c:/microchip/xc32/v1.31/bin/../lib/gcc/pic32mx/4.5.2/../../../../pic32mx/lib\libpic32.a(isinf.o)
 .reginfo       0x00000000       0x18 c:/microchip/xc32/v1.31/bin/../lib/gcc/pic32mx/4.5.2/../../../../pic32mx/lib\libc.a(itoa.o)
 .reginfo       0x00000000       0x18 c:/microchip/xc32/v1.31/bin/../lib/gcc/pic32mx/4.5.2/../../../../pic32mx/lib\libe.a(_unorddf2.o)
 .reginfo       0x00000000       0x18 c:/microchip/xc32/v1.31/bin/../lib/gcc/pic32mx/4.5.2/../../../../pic32mx/lib\software-debug-break.o

Memory Configuration

Name             Origin             Length             Attributes
kseg0_program_mem 0x9d000000         0x00080000         xr
kseg0_boot_mem   0x9fc00490         0x00000970
exception_mem    0x9fc01000         0x00001000
kseg1_boot_mem   0xbfc00000         0x00000490
debug_exec_mem   0xbfc02000         0x00000ff0
config3          0xbfc02ff0         0x00000004
config2          0xbfc02ff4         0x00000004
config1          0xbfc02ff8         0x00000004
config0          0xbfc02ffc         0x00000004
kseg1_data_mem   0xa0000000         0x00020000         w !x
sfrs             0xbf800000         0x00100000
configsfrs       0xbfc02ff0         0x00000010
*default*        0x00000000         0xffffffff

Linker script and memory map

LOAD c:/microchip/xc32/v1.31/bin/../lib/gcc/pic32mx/4.5.2/../../../../pic32mx/lib/./proc/32MX795F512L/crt0_mips32r2.o
                0x00000001                _DEBUGGER = 0x1
LOAD build/default/debug/src/app/app_tasks/program_planner.o
LOAD build/default/debug/src/app/app_tasks/g_code.o
LOAD build/default/debug/src/app/app_tasks/motion.o
LOAD build/default/debug/src/app/app_tasks/nuts_bolts.o
LOAD build/default/debug/src/app/app_tasks/settings.o
LOAD build/default/debug/src/app/app_tasks/eeprom.o
LOAD build/default/debug/src/app/app_tasks/dee_emulation_pic32.o
LOAD build/default/debug/src/app/app_tasks/report.o
LOAD build/default/debug/src/app/app_tasks/stepper.o
LOAD build/default/debug/src/app/system_config/pic32_mx/system_init.o
LOAD build/default/debug/src/app/system_config/pic32_mx/system_interrupt.o
LOAD build/default/debug/src/app/system_config/pic32_mx/system_task.o
LOAD build/default/debug/src/app/main.o
LOAD build/default/debug/src/app/app.o
LOAD build/default/debug/src/bsp/cnc_rev_00/bsp_sys_init.o
LOAD build/default/debug/src/app/app_tasks/protocol.o
LOAD ..\..\..\..\..\..\microchip\xc32\v1.31\pic32mx\lib\libmchp_peripheral_32MX795F512L.a
                0x00000001                __MPLAB_BUILD = 0x1
                0x00000001                __MPLAB_DEBUG = 0x1
                0x00000001                __DEBUG = 0x1
                0x00000001                __MPLAB_DEBUGGER_PK3 = 0x1
LOAD c:/microchip/xc32/v1.31/bin/../lib/gcc/pic32mx/4.5.2/../../../../pic32mx/lib/./proc/32MX795F512L\default_isr_vectors.o
                0x00000400                PROVIDE (_min_stack_size, 0x400)
LOAD c:/microchip/xc32/v1.31/bin/../lib/gcc/pic32mx/4.5.2/../../../../pic32mx/lib/./proc/32MX795F512L\processor.o
START GROUP
LOAD c:/microchip/xc32/v1.31/bin/../lib/gcc/pic32mx/4.5.2/../../../../pic32mx/lib\libmchp_peripheral.a
END GROUP
START GROUP
LOAD c:/microchip/xc32/v1.31/bin/../lib/gcc/pic32mx/4.5.2/../../../../pic32mx/lib\libmchp_peripheral_32MX795F512L.a
END GROUP
                0x00000001                PROVIDE (_vector_spacing, 0x1)
                0x9fc01000                _ebase_address = 0x9fc01000
                0xbfc00000                _RESET_ADDR = 0xbfc00000
                0xbfc00380                _BEV_EXCPT_ADDR = 0xbfc00380
                0xbfc00480                _DBG_EXCPT_ADDR = 0xbfc00480
                0xbfc02000                _DBG_CODE_ADDR = 0xbfc02000
                0x00000ff0                _DBG_CODE_SIZE = 0xff0
                0x9fc01180                _GEN_EXCPT_ADDR = (_ebase_address + 0x180)

.config_BFC02FF0
                0xbfc02ff0        0x4
 *(.config_BFC02FF0)
 .config_BFC02FF0
                0xbfc02ff0        0x4 build/default/debug/src/app/system_config/pic32_mx/system_init.o

.config_BFC02FF4
                0xbfc02ff4        0x4
 *(.config_BFC02FF4)
 .config_BFC02FF4
                0xbfc02ff4        0x4 build/default/debug/src/app/system_config/pic32_mx/system_init.o

.config_BFC02FF8
                0xbfc02ff8        0x4
 *(.config_BFC02FF8)
 .config_BFC02FF8
                0xbfc02ff8        0x4 build/default/debug/src/app/system_config/pic32_mx/system_init.o

.config_BFC02FFC
                0xbfc02ffc        0x4
 *(.config_BFC02FFC)
 .config_BFC02FFC
                0xbfc02ffc        0x4 build/default/debug/src/app/system_config/pic32_mx/system_init.o
                0xbfc02000                PROVIDE (_DBG_CODE_ADDR, 0xbfc02000)
                0x00000ff0                PROVIDE (_DBG_CODE_SIZE, 0xff0)

.reset          0xbfc00000      0x1e8
 *(.reset)
 .reset         0xbfc00000      0x1e8 c:/microchip/xc32/v1.31/bin/../lib/gcc/pic32mx/4.5.2/../../../../pic32mx/lib/./proc/32MX795F512L/crt0_mips32r2.o
                0xbfc00000                _reset
 *(.reset.startup)

.bev_excpt      0xbfc00380       0x10
 *(.bev_handler)
 .bev_handler   0xbfc00380       0x10 c:/microchip/xc32/v1.31/bin/../lib/gcc/pic32mx/4.5.2/../../../../pic32mx/lib/./proc/32MX795F512L/crt0_mips32r2.o

.dbg_excpt      0xbfc00480        0x8
                0xbfc00480                . = (. + DEFINED (_DEBUGGER)?0x8:0x0)
 *fill*         0xbfc00480        0x8 

.dbg_code       0xbfc02000      0xff0
                0xbfc02000                . = (. + DEFINED (_DEBUGGER)?_DBG_CODE_SIZE:0x0)
 *fill*         0xbfc02000      0xff0 

.app_excpt      0x9fc01180       0x10
 *(.gen_handler)
 .gen_handler   0x9fc01180       0x10 c:/microchip/xc32/v1.31/bin/../lib/gcc/pic32mx/4.5.2/../../../../pic32mx/lib/./proc/32MX795F512L/crt0_mips32r2.o

.vector_0       0x9fc01200        0x8
 *(.vector_0)
 .vector_0      0x9fc01200        0x8 build/default/debug/src/app/system_config/pic32_mx/system_interrupt.o
                0x9fc01200                __vector_dispatch_0
                0x00000001                ASSERT (((_vector_spacing == 0x0) || (SIZEOF (.vector_0) <= (_vector_spacing << 0x5))), function at exception vector 0 too large)

.vector_1       0x9fc01220        0x8
 *(.vector_1)
 .vector_1      0x9fc01220        0x8 c:/microchip/xc32/v1.31/bin/../lib/gcc/pic32mx/4.5.2/../../../../pic32mx/lib\libpic32.a(vector1.o)
                0x9fc01220                __vector_dispatch_1
                0x00000001                ASSERT (((_vector_spacing == 0x0) || (SIZEOF (.vector_1) <= (_vector_spacing << 0x5))), function at exception vector 1 too large)

.vector_2       0x9fc01240        0x8
 *(.vector_2)
 .vector_2      0x9fc01240        0x8 c:/microchip/xc32/v1.31/bin/../lib/gcc/pic32mx/4.5.2/../../../../pic32mx/lib\libpic32.a(vector2.o)
                0x9fc01240                __vector_dispatch_2
                0x00000001                ASSERT (((_vector_spacing == 0x0) || (SIZEOF (.vector_2) <= (_vector_spacing << 0x5))), function at exception vector 2 too large)

.vector_3       0x9fc01260        0x8
 *(.vector_3)
 .vector_3      0x9fc01260        0x8 c:/microchip/xc32/v1.31/bin/../lib/gcc/pic32mx/4.5.2/../../../../pic32mx/lib\libpic32.a(vector3.o)
                0x9fc01260                __vector_dispatch_3
                0x00000001                ASSERT (((_vector_spacing == 0x0) || (SIZEOF (.vector_3) <= (_vector_spacing << 0x5))), function at exception vector 3 too large)

.vector_4       0x9fc01280        0x8
 *(.vector_4)
 .vector_4      0x9fc01280        0x8 build/default/debug/src/app/system_config/pic32_mx/system_interrupt.o
                0x9fc01280                __vector_dispatch_4
                0x00000001                ASSERT (((_vector_spacing == 0x0) || (SIZEOF (.vector_4) <= (_vector_spacing << 0x5))), function at exception vector 4 too large)

.vector_5       0x9fc012a0        0x8
 *(.vector_5)
 .vector_5      0x9fc012a0        0x8 c:/microchip/xc32/v1.31/bin/../lib/gcc/pic32mx/4.5.2/../../../../pic32mx/lib\libpic32.a(vector5.o)
                0x9fc012a0                __vector_dispatch_5
                0x00000001                ASSERT (((_vector_spacing == 0x0) || (SIZEOF (.vector_5) <= (_vector_spacing << 0x5))), function at exception vector 5 too large)

.vector_6       0x9fc012c0        0x8
 *(.vector_6)
 .vector_6      0x9fc012c0        0x8 c:/microchip/xc32/v1.31/bin/../lib/gcc/pic32mx/4.5.2/../../../../pic32mx/lib\libpic32.a(vector6.o)
                0x9fc012c0                __vector_dispatch_6
                0x00000001                ASSERT (((_vector_spacing == 0x0) || (SIZEOF (.vector_6) <= (_vector_spacing << 0x5))), function at exception vector 6 too large)

.vector_7       0x9fc012e0        0x8
 *(.vector_7)
 .vector_7      0x9fc012e0        0x8 build/default/debug/src/app/system_config/pic32_mx/system_interrupt.o
                0x9fc012e0                __vector_dispatch_7
                0x00000001                ASSERT (((_vector_spacing == 0x0) || (SIZEOF (.vector_7) <= (_vector_spacing << 0x5))), function at exception vector 7 too large)

.vector_8       0x9fc01300        0x8
 *(.vector_8)
 .vector_8      0x9fc01300        0x8 build/default/debug/src/app/system_config/pic32_mx/system_interrupt.o
                0x9fc01300                __vector_dispatch_8
                0x00000001                ASSERT (((_vector_spacing == 0x0) || (SIZEOF (.vector_8) <= (_vector_spacing << 0x5))), function at exception vector 8 too large)

.vector_9       0x9fc01320        0x8
 *(.vector_9)
 .vector_9      0x9fc01320        0x8 c:/microchip/xc32/v1.31/bin/../lib/gcc/pic32mx/4.5.2/../../../../pic32mx/lib\libpic32.a(vector9.o)
                0x9fc01320                __vector_dispatch_9
                0x00000001                ASSERT (((_vector_spacing == 0x0) || (SIZEOF (.vector_9) <= (_vector_spacing << 0x5))), function at exception vector 9 too large)

.vector_10      0x9fc01340        0x8
 *(.vector_10)
 .vector_10     0x9fc01340        0x8 c:/microchip/xc32/v1.31/bin/../lib/gcc/pic32mx/4.5.2/../../../../pic32mx/lib\libpic32.a(vector10.o)
                0x9fc01340                __vector_dispatch_10
                0x00000001                ASSERT (((_vector_spacing == 0x0) || (SIZEOF (.vector_10) <= (_vector_spacing << 0x5))), function at exception vector 10 too large)

.vector_11      0x9fc01360        0x8
 *(.vector_11)
 .vector_11     0x9fc01360        0x8 build/default/debug/src/app/system_config/pic32_mx/system_interrupt.o
                0x9fc01360                __vector_dispatch_11
                0x00000001                ASSERT (((_vector_spacing == 0x0) || (SIZEOF (.vector_11) <= (_vector_spacing << 0x5))), function at exception vector 11 too large)

.vector_12      0x9fc01380        0x8
 *(.vector_12)
 .vector_12     0x9fc01380        0x8 build/default/debug/src/app/system_config/pic32_mx/system_interrupt.o
                0x9fc01380                __vector_dispatch_12
                0x00000001                ASSERT (((_vector_spacing == 0x0) || (SIZEOF (.vector_12) <= (_vector_spacing << 0x5))), function at exception vector 12 too large)

.vector_13      0x9fc013a0        0x8
 *(.vector_13)
 .vector_13     0x9fc013a0        0x8 c:/microchip/xc32/v1.31/bin/../lib/gcc/pic32mx/4.5.2/../../../../pic32mx/lib\libpic32.a(vector13.o)
                0x9fc013a0                __vector_dispatch_13
                0x00000001                ASSERT (((_vector_spacing == 0x0) || (SIZEOF (.vector_13) <= (_vector_spacing << 0x5))), function at exception vector 13 too large)

.vector_14      0x9fc013c0        0x8
 *(.vector_14)
 .vector_14     0x9fc013c0        0x8 c:/microchip/xc32/v1.31/bin/../lib/gcc/pic32mx/4.5.2/../../../../pic32mx/lib\libpic32.a(vector14.o)
                0x9fc013c0                __vector_dispatch_14
                0x00000001                ASSERT (((_vector_spacing == 0x0) || (SIZEOF (.vector_14) <= (_vector_spacing << 0x5))), function at exception vector 14 too large)

.vector_15      0x9fc013e0        0x8
 *(.vector_15)
 .vector_15     0x9fc013e0        0x8 c:/microchip/xc32/v1.31/bin/../lib/gcc/pic32mx/4.5.2/../../../../pic32mx/lib\libpic32.a(vector15.o)
                0x9fc013e0                __vector_dispatch_15
                0x00000001                ASSERT (((_vector_spacing == 0x0) || (SIZEOF (.vector_15) <= (_vector_spacing << 0x5))), function at exception vector 15 too large)

.vector_16      0x9fc01400        0x8
 *(.vector_16)
 .vector_16     0x9fc01400        0x8 build/default/debug/src/app/system_config/pic32_mx/system_interrupt.o
                0x9fc01400                __vector_dispatch_16
                0x00000001                ASSERT (((_vector_spacing == 0x0) || (SIZEOF (.vector_16) <= (_vector_spacing << 0x5))), function at exception vector 16 too large)

.vector_17      0x9fc01420        0x8
 *(.vector_17)
 .vector_17     0x9fc01420        0x8 c:/microchip/xc32/v1.31/bin/../lib/gcc/pic32mx/4.5.2/../../../../pic32mx/lib\libpic32.a(vector17.o)
                0x9fc01420                __vector_dispatch_17
                0x00000001                ASSERT (((_vector_spacing == 0x0) || (SIZEOF (.vector_17) <= (_vector_spacing << 0x5))), function at exception vector 17 too large)

.vector_18      0x9fc01440        0x8
 *(.vector_18)
 .vector_18     0x9fc01440        0x8 c:/microchip/xc32/v1.31/bin/../lib/gcc/pic32mx/4.5.2/../../../../pic32mx/lib\libpic32.a(vector18.o)
                0x9fc01440                __vector_dispatch_18
                0x00000001                ASSERT (((_vector_spacing == 0x0) || (SIZEOF (.vector_18) <= (_vector_spacing << 0x5))), function at exception vector 18 too large)

.vector_19      0x9fc01460        0x8
 *(.vector_19)
 .vector_19     0x9fc01460        0x8 c:/microchip/xc32/v1.31/bin/../lib/gcc/pic32mx/4.5.2/../../../../pic32mx/lib\libpic32.a(vector19.o)
                0x9fc01460                __vector_dispatch_19
                0x00000001                ASSERT (((_vector_spacing == 0x0) || (SIZEOF (.vector_19) <= (_vector_spacing << 0x5))), function at exception vector 19 too large)

.vector_20      0x9fc01480        0x8
 *(.vector_20)
 .vector_20     0x9fc01480        0x8 c:/microchip/xc32/v1.31/bin/../lib/gcc/pic32mx/4.5.2/../../../../pic32mx/lib\libpic32.a(vector20.o)
                0x9fc01480                __vector_dispatch_20
                0x00000001                ASSERT (((_vector_spacing == 0x0) || (SIZEOF (.vector_20) <= (_vector_spacing << 0x5))), function at exception vector 20 too large)

.vector_21      0x9fc014a0        0x8
 *(.vector_21)
 .vector_21     0x9fc014a0        0x8 c:/microchip/xc32/v1.31/bin/../lib/gcc/pic32mx/4.5.2/../../../../pic32mx/lib\libpic32.a(vector21.o)
                0x9fc014a0                __vector_dispatch_21
                0x00000001                ASSERT (((_vector_spacing == 0x0) || (SIZEOF (.vector_21) <= (_vector_spacing << 0x5))), function at exception vector 21 too large)

.vector_22      0x9fc014c0        0x8
 *(.vector_22)
 .vector_22     0x9fc014c0        0x8 c:/microchip/xc32/v1.31/bin/../lib/gcc/pic32mx/4.5.2/../../../../pic32mx/lib\libpic32.a(vector22.o)
                0x9fc014c0                __vector_dispatch_22
                0x00000001                ASSERT (((_vector_spacing == 0x0) || (SIZEOF (.vector_22) <= (_vector_spacing << 0x5))), function at exception vector 22 too large)

.vector_23      0x9fc014e0        0x8
 *(.vector_23)
 .vector_23     0x9fc014e0        0x8 c:/microchip/xc32/v1.31/bin/../lib/gcc/pic32mx/4.5.2/../../../../pic32mx/lib\libpic32.a(vector23.o)
                0x9fc014e0                __vector_dispatch_23
                0x00000001                ASSERT (((_vector_spacing == 0x0) || (SIZEOF (.vector_23) <= (_vector_spacing << 0x5))), function at exception vector 23 too large)

.vector_24      0x9fc01500        0x8
 *(.vector_24)
 .vector_24     0x9fc01500        0x8 c:/microchip/xc32/v1.31/bin/../lib/gcc/pic32mx/4.5.2/../../../../pic32mx/lib\libpic32.a(vector24.o)
                0x9fc01500                __vector_dispatch_24
                0x00000001                ASSERT (((_vector_spacing == 0x0) || (SIZEOF (.vector_24) <= (_vector_spacing << 0x5))), function at exception vector 24 too large)

.vector_25      0x9fc01520        0x8
 *(.vector_25)
 .vector_25     0x9fc01520        0x8 c:/microchip/xc32/v1.31/bin/../lib/gcc/pic32mx/4.5.2/../../../../pic32mx/lib\libpic32.a(vector25.o)
                0x9fc01520                __vector_dispatch_25
                0x00000001                ASSERT (((_vector_spacing == 0x0) || (SIZEOF (.vector_25) <= (_vector_spacing << 0x5))), function at exception vector 25 too large)

.vector_26      0x9fc01540        0x8
 *(.vector_26)
 .vector_26     0x9fc01540        0x8 c:/microchip/xc32/v1.31/bin/../lib/gcc/pic32mx/4.5.2/../../../../pic32mx/lib\libpic32.a(vector26.o)
                0x9fc01540                __vector_dispatch_26
                0x00000001                ASSERT (((_vector_spacing == 0x0) || (SIZEOF (.vector_26) <= (_vector_spacing << 0x5))), function at exception vector 26 too large)

.vector_27      0x9fc01560        0x8
 *(.vector_27)
 .vector_27     0x9fc01560        0x8 c:/microchip/xc32/v1.31/bin/../lib/gcc/pic32mx/4.5.2/../../../../pic32mx/lib\libpic32.a(vector27.o)
                0x9fc01560                __vector_dispatch_27
                0x00000001                ASSERT (((_vector_spacing == 0x0) || (SIZEOF (.vector_27) <= (_vector_spacing << 0x5))), function at exception vector 27 too large)

.vector_28      0x9fc01580        0x8
 *(.vector_28)
 .vector_28     0x9fc01580        0x8 c:/microchip/xc32/v1.31/bin/../lib/gcc/pic32mx/4.5.2/../../../../pic32mx/lib\libpic32.a(vector28.o)
                0x9fc01580                __vector_dispatch_28
                0x00000001                ASSERT (((_vector_spacing == 0x0) || (SIZEOF (.vector_28) <= (_vector_spacing << 0x5))), function at exception vector 28 too large)

.vector_29      0x9fc015a0        0x8
 *(.vector_29)
 .vector_29     0x9fc015a0        0x8 c:/microchip/xc32/v1.31/bin/../lib/gcc/pic32mx/4.5.2/../../../../pic32mx/lib\libpic32.a(vector29.o)
                0x9fc015a0                __vector_dispatch_29
                0x00000001                ASSERT (((_vector_spacing == 0x0) || (SIZEOF (.vector_29) <= (_vector_spacing << 0x5))), function at exception vector 29 too large)

.vector_30      0x9fc015c0        0x8
 *(.vector_30)
 .vector_30     0x9fc015c0        0x8 c:/microchip/xc32/v1.31/bin/../lib/gcc/pic32mx/4.5.2/../../../../pic32mx/lib\libpic32.a(vector30.o)
                0x9fc015c0                __vector_dispatch_30
                0x00000001                ASSERT (((_vector_spacing == 0x0) || (SIZEOF (.vector_30) <= (_vector_spacing << 0x5))), function at exception vector 30 too large)

.vector_31      0x9fc015e0        0x8
 *(.vector_31)
 .vector_31     0x9fc015e0        0x8 c:/microchip/xc32/v1.31/bin/../lib/gcc/pic32mx/4.5.2/../../../../pic32mx/lib\libpic32.a(vector31.o)
                0x9fc015e0                __vector_dispatch_31
                0x00000001                ASSERT (((_vector_spacing == 0x0) || (SIZEOF (.vector_31) <= (_vector_spacing << 0x5))), function at exception vector 31 too large)

.vector_32      0x9fc01600        0x8
 *(.vector_32)
 .vector_32     0x9fc01600        0x8 build/default/debug/src/app/system_config/pic32_mx/system_interrupt.o
                0x9fc01600                __vector_dispatch_32
                0x00000001                ASSERT (((_vector_spacing == 0x0) || (SIZEOF (.vector_32) <= (_vector_spacing << 0x5))), function at exception vector 32 too large)

.vector_33      0x9fc01620        0x8
 *(.vector_33)
 .vector_33     0x9fc01620        0x8 c:/microchip/xc32/v1.31/bin/../lib/gcc/pic32mx/4.5.2/../../../../pic32mx/lib\libpic32.a(vector33.o)
                0x9fc01620                __vector_dispatch_33
                0x00000001                ASSERT (((_vector_spacing == 0x0) || (SIZEOF (.vector_33) <= (_vector_spacing << 0x5))), function at exception vector 33 too large)

.vector_34      0x9fc01640        0x8
 *(.vector_34)
 .vector_34     0x9fc01640        0x8 c:/microchip/xc32/v1.31/bin/../lib/gcc/pic32mx/4.5.2/../../../../pic32mx/lib\libpic32.a(vector34.o)
                0x9fc01640                __vector_dispatch_34
                0x00000001                ASSERT (((_vector_spacing == 0x0) || (SIZEOF (.vector_34) <= (_vector_spacing << 0x5))), function at exception vector 34 too large)

.vector_35      0x9fc01660        0x8
 *(.vector_35)
 .vector_35     0x9fc01660        0x8 c:/microchip/xc32/v1.31/bin/../lib/gcc/pic32mx/4.5.2/../../../../pic32mx/lib\libpic32.a(vector35.o)
                0x9fc01660                __vector_dispatch_35
                0x00000001                ASSERT (((_vector_spacing == 0x0) || (SIZEOF (.vector_35) <= (_vector_spacing << 0x5))), function at exception vector 35 too large)

.vector_36      0x9fc01680        0x8
 *(.vector_36)
 .vector_36     0x9fc01680        0x8 c:/microchip/xc32/v1.31/bin/../lib/gcc/pic32mx/4.5.2/../../../../pic32mx/lib\libpic32.a(vector36.o)
                0x9fc01680                __vector_dispatch_36
                0x00000001                ASSERT (((_vector_spacing == 0x0) || (SIZEOF (.vector_36) <= (_vector_spacing << 0x5))), function at exception vector 36 too large)

.vector_37      0x9fc016a0        0x8
 *(.vector_37)
 .vector_37     0x9fc016a0        0x8 c:/microchip/xc32/v1.31/bin/../lib/gcc/pic32mx/4.5.2/../../../../pic32mx/lib\libpic32.a(vector37.o)
                0x9fc016a0                __vector_dispatch_37
                0x00000001                ASSERT (((_vector_spacing == 0x0) || (SIZEOF (.vector_37) <= (_vector_spacing << 0x5))), function at exception vector 37 too large)

.vector_38      0x9fc016c0        0x8
 *(.vector_38)
 .vector_38     0x9fc016c0        0x8 c:/microchip/xc32/v1.31/bin/../lib/gcc/pic32mx/4.5.2/../../../../pic32mx/lib\libpic32.a(vector38.o)
                0x9fc016c0                __vector_dispatch_38
                0x00000001                ASSERT (((_vector_spacing == 0x0) || (SIZEOF (.vector_38) <= (_vector_spacing << 0x5))), function at exception vector 38 too large)

.vector_39      0x9fc016e0        0x8
 *(.vector_39)
 .vector_39     0x9fc016e0        0x8 c:/microchip/xc32/v1.31/bin/../lib/gcc/pic32mx/4.5.2/../../../../pic32mx/lib\libpic32.a(vector39.o)
                0x9fc016e0                __vector_dispatch_39
                0x00000001                ASSERT (((_vector_spacing == 0x0) || (SIZEOF (.vector_39) <= (_vector_spacing << 0x5))), function at exception vector 39 too large)

.vector_40      0x9fc01700        0x8
 *(.vector_40)
 .vector_40     0x9fc01700        0x8 c:/microchip/xc32/v1.31/bin/../lib/gcc/pic32mx/4.5.2/../../../../pic32mx/lib\libpic32.a(vector40.o)
                0x9fc01700                __vector_dispatch_40
                0x00000001                ASSERT (((_vector_spacing == 0x0) || (SIZEOF (.vector_40) <= (_vector_spacing << 0x5))), function at exception vector 40 too large)

.vector_41      0x9fc01720        0x8
 *(.vector_41)
 .vector_41     0x9fc01720        0x8 c:/microchip/xc32/v1.31/bin/../lib/gcc/pic32mx/4.5.2/../../../../pic32mx/lib\libpic32.a(vector41.o)
                0x9fc01720                __vector_dispatch_41
                0x00000001                ASSERT (((_vector_spacing == 0x0) || (SIZEOF (.vector_41) <= (_vector_spacing << 0x5))), function at exception vector 41 too large)

.vector_42      0x9fc01740        0x8
 *(.vector_42)
 .vector_42     0x9fc01740        0x8 c:/microchip/xc32/v1.31/bin/../lib/gcc/pic32mx/4.5.2/../../../../pic32mx/lib\libpic32.a(vector42.o)
                0x9fc01740                __vector_dispatch_42
                0x00000001                ASSERT (((_vector_spacing == 0x0) || (SIZEOF (.vector_42) <= (_vector_spacing << 0x5))), function at exception vector 42 too large)

.vector_43      0x9fc01760        0x8
 *(.vector_43)
 .vector_43     0x9fc01760        0x8 c:/microchip/xc32/v1.31/bin/../lib/gcc/pic32mx/4.5.2/../../../../pic32mx/lib\libpic32.a(vector43.o)
                0x9fc01760                __vector_dispatch_43
                0x00000001                ASSERT (((_vector_spacing == 0x0) || (SIZEOF (.vector_43) <= (_vector_spacing << 0x5))), function at exception vector 43 too large)

.vector_44      0x9fc01780        0x8
 *(.vector_44)
 .vector_44     0x9fc01780        0x8 c:/microchip/xc32/v1.31/bin/../lib/gcc/pic32mx/4.5.2/../../../../pic32mx/lib\libpic32.a(vector44.o)
                0x9fc01780                __vector_dispatch_44
                0x00000001                ASSERT (((_vector_spacing == 0x0) || (SIZEOF (.vector_44) <= (_vector_spacing << 0x5))), function at exception vector 44 too large)

.vector_45      0x9fc017a0        0x8
 *(.vector_45)
 .vector_45     0x9fc017a0        0x8 c:/microchip/xc32/v1.31/bin/../lib/gcc/pic32mx/4.5.2/../../../../pic32mx/lib\libpic32.a(vector45.o)
                0x9fc017a0                __vector_dispatch_45
                0x00000001                ASSERT (((_vector_spacing == 0x0) || (SIZEOF (.vector_45) <= (_vector_spacing << 0x5))), function at exception vector 45 too large)

.vector_46      0x9fc017c0        0x8
 *(.vector_46)
 .vector_46     0x9fc017c0        0x8 c:/microchip/xc32/v1.31/bin/../lib/gcc/pic32mx/4.5.2/../../../../pic32mx/lib\libpic32.a(vector46.o)
                0x9fc017c0                __vector_dispatch_46
                0x00000001                ASSERT (((_vector_spacing == 0x0) || (SIZEOF (.vector_46) <= (_vector_spacing << 0x5))), function at exception vector 46 too large)

.vector_47      0x9fc017e0        0x8
 *(.vector_47)
 .vector_47     0x9fc017e0        0x8 c:/microchip/xc32/v1.31/bin/../lib/gcc/pic32mx/4.5.2/../../../../pic32mx/lib\libpic32.a(vector47.o)
                0x9fc017e0                __vector_dispatch_47
                0x00000001                ASSERT (((_vector_spacing == 0x0) || (SIZEOF (.vector_47) <= (_vector_spacing << 0x5))), function at exception vector 47 too large)

.vector_48      0x9fc01800        0x8
 *(.vector_48)
 .vector_48     0x9fc01800        0x8 c:/microchip/xc32/v1.31/bin/../lib/gcc/pic32mx/4.5.2/../../../../pic32mx/lib\libpic32.a(vector48.o)
                0x9fc01800                __vector_dispatch_48
                0x00000001                ASSERT (((_vector_spacing == 0x0) || (SIZEOF (.vector_48) <= (_vector_spacing << 0x5))), function at exception vector 48 too large)

.vector_49      0x9fc01820        0x8
 *(.vector_49)
 .vector_49     0x9fc01820        0x8 c:/microchip/xc32/v1.31/bin/../lib/gcc/pic32mx/4.5.2/../../../../pic32mx/lib\libpic32.a(vector49.o)
                0x9fc01820                __vector_dispatch_49
                0x00000001                ASSERT (((_vector_spacing == 0x0) || (SIZEOF (.vector_49) <= (_vector_spacing << 0x5))), function at exception vector 49 too large)

.vector_50      0x9fc01840        0x8
 *(.vector_50)
 .vector_50     0x9fc01840        0x8 c:/microchip/xc32/v1.31/bin/../lib/gcc/pic32mx/4.5.2/../../../../pic32mx/lib\libpic32.a(vector50.o)
                0x9fc01840                __vector_dispatch_50
                0x00000001                ASSERT (((_vector_spacing == 0x0) || (SIZEOF (.vector_50) <= (_vector_spacing << 0x5))), function at exception vector 50 too large)

.vector_51      0x9fc01860        0x8
 *(.vector_51)
 .vector_51     0x9fc01860        0x8 c:/microchip/xc32/v1.31/bin/../lib/gcc/pic32mx/4.5.2/../../../../pic32mx/lib\libpic32.a(vector51.o)
                0x9fc01860                __vector_dispatch_51
                0x00000001                ASSERT (((_vector_spacing == 0x0) || (SIZEOF (.vector_51) <= (_vector_spacing << 0x5))), function at exception vector 51 too large)

.vector_52      0x9fc01880        0x8
 *(.vector_52)
 .vector_52     0x9fc01880        0x8 c:/microchip/xc32/v1.31/bin/../lib/gcc/pic32mx/4.5.2/../../../../pic32mx/lib\libpic32.a(vector52.o)
                0x9fc01880                __vector_dispatch_52
                0x00000001                ASSERT (((_vector_spacing == 0x0) || (SIZEOF (.vector_52) <= (_vector_spacing << 0x5))), function at exception vector 52 too large)

.vector_53      0x9fc018a0        0x8
 *(.vector_53)
 .vector_53     0x9fc018a0        0x8 c:/microchip/xc32/v1.31/bin/../lib/gcc/pic32mx/4.5.2/../../../../pic32mx/lib\libpic32.a(vector53.o)
                0x9fc018a0                __vector_dispatch_53
                0x00000001                ASSERT (((_vector_spacing == 0x0) || (SIZEOF (.vector_53) <= (_vector_spacing << 0x5))), function at exception vector 53 too large)

.vector_54      0x9fc018c0        0x8
 *(.vector_54)
 .vector_54     0x9fc018c0        0x8 c:/microchip/xc32/v1.31/bin/../lib/gcc/pic32mx/4.5.2/../../../../pic32mx/lib\libpic32.a(vector54.o)
                0x9fc018c0                __vector_dispatch_54
                0x00000001                ASSERT (((_vector_spacing == 0x0) || (SIZEOF (.vector_54) <= (_vector_spacing << 0x5))), function at exception vector 54 too large)

.vector_55      0x9fc018e0        0x8
 *(.vector_55)
 .vector_55     0x9fc018e0        0x8 c:/microchip/xc32/v1.31/bin/../lib/gcc/pic32mx/4.5.2/../../../../pic32mx/lib\libpic32.a(vector55.o)
                0x9fc018e0                __vector_dispatch_55
                0x00000001                ASSERT (((_vector_spacing == 0x0) || (SIZEOF (.vector_55) <= (_vector_spacing << 0x5))), function at exception vector 55 too large)

.vector_56      0x9fc01900        0x8
 *(.vector_56)
 .vector_56     0x9fc01900        0x8 c:/microchip/xc32/v1.31/bin/../lib/gcc/pic32mx/4.5.2/../../../../pic32mx/lib\libpic32.a(vector56.o)
                0x9fc01900                __vector_dispatch_56
                0x00000001                ASSERT (((_vector_spacing == 0x0) || (SIZEOF (.vector_56) <= (_vector_spacing << 0x5))), function at exception vector 56 too large)

.vector_57      0x9fc01920        0x8
 *(.vector_57)
 .vector_57     0x9fc01920        0x8 c:/microchip/xc32/v1.31/bin/../lib/gcc/pic32mx/4.5.2/../../../../pic32mx/lib\libpic32.a(vector57.o)
                0x9fc01920                __vector_dispatch_57
                0x00000001                ASSERT (((_vector_spacing == 0x0) || (SIZEOF (.vector_57) <= (_vector_spacing << 0x5))), function at exception vector 57 too large)

.vector_58      0x9fc01940        0x8
 *(.vector_58)
 .vector_58     0x9fc01940        0x8 c:/microchip/xc32/v1.31/bin/../lib/gcc/pic32mx/4.5.2/../../../../pic32mx/lib\libpic32.a(vector58.o)
                0x9fc01940                __vector_dispatch_58
                0x00000001                ASSERT (((_vector_spacing == 0x0) || (SIZEOF (.vector_58) <= (_vector_spacing << 0x5))), function at exception vector 58 too large)

.vector_59      0x9fc01960        0x8
 *(.vector_59)
 .vector_59     0x9fc01960        0x8 c:/microchip/xc32/v1.31/bin/../lib/gcc/pic32mx/4.5.2/../../../../pic32mx/lib\libpic32.a(vector59.o)
                0x9fc01960                __vector_dispatch_59
                0x00000001                ASSERT (((_vector_spacing == 0x0) || (SIZEOF (.vector_59) <= (_vector_spacing << 0x5))), function at exception vector 59 too large)

.vector_60      0x9fc01980        0x8
 *(.vector_60)
 .vector_60     0x9fc01980        0x8 c:/microchip/xc32/v1.31/bin/../lib/gcc/pic32mx/4.5.2/../../../../pic32mx/lib\libpic32.a(vector60.o)
                0x9fc01980                __vector_dispatch_60
                0x00000001                ASSERT (((_vector_spacing == 0x0) || (SIZEOF (.vector_60) <= (_vector_spacing << 0x5))), function at exception vector 60 too large)

.vector_61      0x9fc019a0        0x8
 *(.vector_61)
 .vector_61     0x9fc019a0        0x8 c:/microchip/xc32/v1.31/bin/../lib/gcc/pic32mx/4.5.2/../../../../pic32mx/lib\libpic32.a(vector61.o)
                0x9fc019a0                __vector_dispatch_61
                0x00000001                ASSERT (((_vector_spacing == 0x0) || (SIZEOF (.vector_61) <= (_vector_spacing << 0x5))), function at exception vector 61 too large)

.vector_62      0x9fc019c0        0x8
 *(.vector_62)
 .vector_62     0x9fc019c0        0x8 c:/microchip/xc32/v1.31/bin/../lib/gcc/pic32mx/4.5.2/../../../../pic32mx/lib\libpic32.a(vector62.o)
                0x9fc019c0                __vector_dispatch_62
                0x00000001                ASSERT (((_vector_spacing == 0x0) || (SIZEOF (.vector_62) <= (_vector_spacing << 0x5))), function at exception vector 62 too large)

.vector_63      0x9fc019e0        0x8
 *(.vector_63)
 .vector_63     0x9fc019e0        0x8 c:/microchip/xc32/v1.31/bin/../lib/gcc/pic32mx/4.5.2/../../../../pic32mx/lib\libpic32.a(vector63.o)
                0x9fc019e0                __vector_dispatch_63
                0x00000001                ASSERT (((_vector_spacing == 0x0) || (SIZEOF (.vector_63) <= (_vector_spacing << 0x5))), function at exception vector 63 too large)

.startup
 *(.startup)

.text           0x9d000000        0x0
 *(.stub .gnu.linkonce.t.*)
 *(.text.*personality*)
 *(.mips16.fn.*)
 *(.mips16.call.*)
 *(.gnu.warning)
                0x9d000000                . = ALIGN (0x4)

.init           0x9d000000        0x0
 *crti.o(.init)
 *crtbegin.o(.init)
 *(EXCLUDE_FILE(*crtn.o *crtend?.o *crtend.o) .init)
 *crtend.o(.init)
 *crtn.o(.init)
                0x9d000000                . = ALIGN (0x4)

.fini           0x9d000000        0x0
 *(.fini)
                0x9d000000                . = ALIGN (0x4)

.preinit_array  0x9d000000        0x0
                0x9d000000                PROVIDE (__preinit_array_start, .)
 *(.preinit_array)
                0x9d000000                PROVIDE (__preinit_array_end, .)
                0x9d000000                . = ALIGN (0x4)

.init_array     0x9d000000        0x0
                0x9d000000                PROVIDE (__init_array_start, .)
 *(SORT(.init_array.*))
 *(.init_array)
                0x9d000000                PROVIDE (__init_array_end, .)
                0x9d000000                . = ALIGN (0x4)

.fini_array     0x9d000000        0x0
                0x9d000000                PROVIDE (__fini_array_start, .)
 *(SORT(.fini_array.*))
 *(.fini_array)
                0x9d000000                PROVIDE (__fini_array_end, .)
                0x9d000000                . = ALIGN (0x4)

.ctors          0x9d000000        0x0
 *crtbegin.o(.ctors)
 *crtbegin?.o(.ctors)
 *(EXCLUDE_FILE(*crtend?.o *crtend.o) .ctors)
 *(SORT(.ctors.*))
 *(.ctors)
                0x9d000000                . = ALIGN (0x4)

.dtors          0x9d000000        0x0
 *crtbegin.o(.dtors)
 *crtbegin?.o(.dtors)
 *(EXCLUDE_FILE(*crtend?.o *crtend.o) .dtors)
 *(SORT(.dtors.*))
 *(.dtors)
                0x9d000000                . = ALIGN (0x4)

.rodata         0x9d000000        0x0
 *(.gnu.linkonce.r.*)
 *(.rodata1)
                0x9d000000                . = ALIGN (0x4)

.sdata2         0x9fc00490        0x0
 *(.sdata2 .sdata2.* .gnu.linkonce.s2.*)
                0x9fc00490                . = ALIGN (0x4)

.sbss2          0x9fc00490        0x0
 *(.sbss2 .sbss2.* .gnu.linkonce.sb2.*)
                0x9fc00490                . = ALIGN (0x4)

.eh_frame_hdr
 *(.eh_frame_hdr)
                0x9fc00490                . = ALIGN (0x4)

.eh_frame
 *(.eh_frame)
                0x9fc00490                . = ALIGN (0x4)

.gcc_except_table
 *(.gcc_except_table .gcc_except_table.*)
                0x9fc00490                . = ALIGN (0x4)

.dbg_data       0xa0000000      0x200
                0xa0000000                . = (. + DEFINED (_DEBUGGER)?0x200:0x0)
 *fill*         0xa0000000      0x200 

.jcr            0xa0000200        0x0
 *(.jcr)
                0xa0000200                . = ALIGN (0x4)

.eh_frame
 *(.eh_frame)
                0xa0000200                . = ALIGN (0x4)

.gcc_except_table
 *(.gcc_except_table .gcc_except_table.*)
                0xa0000200                . = ALIGN (0x4)

.persist        0xa0000200        0x0
                0xa0000200                _persist_begin = .
 *(.persist .persist.*)
 *(.pbss .pbss.*)
                0xa0000200                . = ALIGN (0x4)
                0xa0000200                _persist_end = .

.data           0xa0000200        0x0
 *(.gnu.linkonce.d.*)
 *(.data1)
                0xa0000200                . = ALIGN (0x4)
                0xa0000200                . = .
                0xa00081f0                _gp = (ALIGN (0x10) + 0x7ff0)

.got            0xa0000200        0x0
 *(.got.plt)
 *(.got)
                0xa0000200                . = ALIGN (0x4)

.sdata          0xa0000200       0x50
                0xa0000200                _sdata_begin = .
 *(.sdata .sdata.* .gnu.linkonce.s.*)
 .sdata         0xa0000200        0x8 build/default/debug/src/app/app_tasks/g_code.o
                0xa0000200                inverseFeedRate
                0xa0000204                decimal_place
 .sdata         0xa0000208        0x4 build/default/debug/src/app/app.o
 .sdata         0xa000020c       0x44 build/default/debug/src/bsp/cnc_rev_00/bsp_sys_init.o
                0xa000020c                zLimitInt
                0xa0000214                xyLimitInt
                0xa000021c                xLimitInput
                0xa0000224                yLimitInput
                0xa000022c                spindleEna
                0xa0000234                spindleVcc
                0xa000023c                spindleTach
                0xa0000244                levelShifterEnable
                0xa000024c                spindleSpdPWM
                0xa0000250                . = ALIGN (0x4)
                0xa0000250                _sdata_end = .

.lit8
 *(.lit8)

.lit4
 *(.lit4)
                0xa0000250                . = ALIGN (0x4)
                0xa0000250                _data_end = .
                0xa0000250                _bss_begin = .

.sbss           0xa0000250       0x94
                0xa0000250                _sbss_begin = .
 *(.dynsbss)
 *(.sbss .sbss.* .gnu.linkonce.sb.*)
 .sbss          0xa0000250        0x3 build/default/debug/src/app/app_tasks/program_planner.o
 *fill*         0xa0000253        0x1 
 .sbss          0xa0000254        0xc build/default/debug/src/app/app_tasks/g_code.o
                0xa0000254                modalGroupWords
                0xa0000258                axisWords
                0xa000025c                absoluteOverride
                0xa000025d                nonModalAction
 .sbss          0xa0000260        0x4 build/default/debug/src/app/app_tasks/dee_emulation_pic32.o
                0xa0000260                lowerAddress
 .sbss          0xa0000264        0x8 build/default/debug/src/app/app_tasks/stepper.o
 .sbss          0xa000026c        0xc build/default/debug/src/app/system_config/pic32_mx/system_interrupt.o
                0xa000026c                uart_rd
                0xa0000270                current_block
                0xa0000274                blockMoveActive
 .sbss          0xa0000278       0x30 build/default/debug/src/app/app.o
                0xa0000278                instructionCount
                0xa000027c                rx_Fifo_Head
                0xa0000280                rx_Fifo_Tail
                0xa0000288                steps_X
                0xa0000290                steps_Y
                0xa0000298                steps_Z
                0xa00002a0                xLimitDetected
                0xa00002a1                yLimitDetected
                0xa00002a2                zLimitDetected
 .sbss          0xa00002a8        0x2 build/default/debug/src/app/app_tasks/protocol.o
 *fill*         0xa00002aa        0x2 
 .sbss          0xa00002ac        0x4 c:/microchip/xc32/v1.31/bin/../lib/gcc/pic32mx/4.5.2/../../../../pic32mx/lib\libpic32.a(errno.o)
                0xa00002ac                errno
 *(.scommon)
 .scommon       0xa00002b0       0x18 build/default/debug/src/app/app_tasks/g_code.o
                0xa00002b0                intValue
                0xa00002b4                float_value
                0xa00002bc                command
                0xa00002c4                inputType
 .scommon       0xa00002c8        0x4 build/default/debug/src/app/app_tasks/dee_emulation_pic32.o
                0xa00002c8                dataEEFlags
 .scommon       0xa00002cc        0x7 build/default/debug/src/app/system_config/pic32_mx/system_interrupt.o
                0xa00002cc                timer2ActiveAxis
                0xa00002cd                axisCompletedCount
                0xa00002ce                timer3AxisCount
                0xa00002cf                timer2AxisCount
                0xa00002d0                timer4AxisCount
                0xa00002d1                timer3ActiveAxis
                0xa00002d2                timer4ActiveAxis
 *fill*         0xa00002d3        0x1 
 .scommon       0xa00002d4        0x8 build/default/debug/src/app/app.o
                0xa00002d4                timer_counter
                0xa00002d8                appObject
 .scommon       0xa00002dc        0x8 build/default/debug/src/bsp/cnc_rev_00/bsp_sys_init.o
                0xa00002dc                temp
                0xa00002e0                milliSecondCount
                0xa00002e4                _sbss_end = .
                0xa00002e4                . = ALIGN (0x4)

.bss            0xa00002e4     0x15a8
 *(.dynbss)
 *(COMMON)
 COMMON         0xa00002e4       0xe4 build/default/debug/src/app/app_tasks/g_code.o
                0xa00002e4                gcode
                0xa000031c                value_cmd
                0xa000033c                offset
                0xa0000348                target
 COMMON         0xa00003c8       0x40 build/default/debug/src/app/app_tasks/settings.o
                0xa00003c8                settings
 COMMON         0xa0000408     0x1200 build/default/debug/src/app/app_tasks/eeprom.o
                0xa0000408                pagebuff
                0xa0001408                databuff
 COMMON         0xa0001608        0xc build/default/debug/src/app/system_config/pic32_mx/system_interrupt.o
                0xa0001608                timerSteps
 COMMON         0xa0001614       0x14 build/default/debug/src/app/main.o
                0xa0001614                sys
 COMMON         0xa0001628      0x263 build/default/debug/src/app/app.o
                0xa0001628                instruction
                0xa0001728                rx_Fifo
                0xa000178c                newLine
                0xa000188c                . = ALIGN ((. != 0x0)?0x4:0x1)
 *fill*         0xa000188b        0x1 
                0xa000188c                . = ALIGN (0x4)
                0xa000188c                _end = .
                0xa000188c                _bss_end = .
                0x00020000                _bmxdudba_address = 0x20000
                0x00020000                _bmxdupba_address = 0x20000

/DISCARD/
 *(.pdr)
 *(.rel.dyn)
 *(.note.GNU-stack)
 *(.note.GNU-stack)
 *(.gnu_debuglink)
 *(.gnu.lto_*)
 *(.discard)

.gptab.sdata
 *(.gptab.data)
 *(.gptab.sdata)

.gptab.sbss
 *(.gptab.bss)
 *(.gptab.sbss)

.mdebug.abi32   0xa000188c        0x0
 *(.mdebug.abi32)
 .mdebug.abi32  0xa000188c        0x0 build/default/debug/src/app/app_tasks/program_planner.o
 .mdebug.abi32  0xa000188c        0x0 build/default/debug/src/app/app_tasks/g_code.o
 .mdebug.abi32  0xa000188c        0x0 build/default/debug/src/app/app_tasks/motion.o
 .mdebug.abi32  0xa000188c        0x0 build/default/debug/src/app/app_tasks/nuts_bolts.o
 .mdebug.abi32  0xa000188c        0x0 build/default/debug/src/app/app_tasks/settings.o
 .mdebug.abi32  0xa000188c        0x0 build/default/debug/src/app/app_tasks/eeprom.o
 .mdebug.abi32  0xa000188c        0x0 build/default/debug/src/app/app_tasks/dee_emulation_pic32.o
 .mdebug.abi32  0xa000188c        0x0 build/default/debug/src/app/app_tasks/report.o
 .mdebug.abi32  0xa000188c        0x0 build/default/debug/src/app/app_tasks/stepper.o
 .mdebug.abi32  0xa000188c        0x0 build/default/debug/src/app/system_config/pic32_mx/system_init.o
 .mdebug.abi32  0xa000188c        0x0 build/default/debug/src/app/system_config/pic32_mx/system_interrupt.o
 .mdebug.abi32  0xa000188c        0x0 build/default/debug/src/app/system_config/pic32_mx/system_task.o
 .mdebug.abi32  0xa000188c        0x0 build/default/debug/src/app/main.o
 .mdebug.abi32  0xa000188c        0x0 build/default/debug/src/app/app.o
 .mdebug.abi32  0xa000188c        0x0 build/default/debug/src/bsp/cnc_rev_00/bsp_sys_init.o
 .mdebug.abi32  0xa000188c        0x0 build/default/debug/src/app/app_tasks/protocol.o
 .mdebug.abi32  0xa000188c        0x0 ..\..\..\..\..\..\microchip\xc32\v1.31\pic32mx\lib\libmchp_peripheral_32MX795F512L.a(open_core_timer_lib.o)
 .mdebug.abi32  0xa000188c        0x0 ..\..\..\..\..\..\microchip\xc32\v1.31\pic32mx\lib\libmchp_peripheral_32MX795F512L.a(pcache.o)
 .mdebug.abi32  0xa000188c        0x0 ..\..\..\..\..\..\microchip\xc32\v1.31\pic32mx\lib\libmchp_peripheral_32MX795F512L.a(int_configure_system_lib.o)
 .mdebug.abi32  0xa000188c        0x0 ..\..\..\..\..\..\microchip\xc32\v1.31\pic32mx\lib\libmchp_peripheral_32MX795F512L.a(int_enable_interrupts_lib.o)
 .mdebug.abi32  0xa000188c        0x0 ..\..\..\..\..\..\microchip\xc32\v1.31\pic32mx\lib\libmchp_peripheral_32MX795F512L.a(int_disable_interrupts_lib.o)
 .mdebug.abi32  0xa000188c        0x0 ..\..\..\..\..\..\microchip\xc32\v1.31\pic32mx\lib\libmchp_peripheral_32MX795F512L.a(int_restore_interrupts_lib.o)
 .mdebug.abi32  0xa000188c        0x0 ..\..\..\..\..\..\microchip\xc32\v1.31\pic32mx\lib\libmchp_peripheral_32MX795F512L.a(int_tbl_lib.o)
 .mdebug.abi32  0xa000188c        0x0 ..\..\..\..\..\..\microchip\xc32\v1.31\pic32mx\lib\libmchp_peripheral_32MX795F512L.a(nvm_erase_page_lib.o)
 .mdebug.abi32  0xa000188c        0x0 ..\..\..\..\..\..\microchip\xc32\v1.31\pic32mx\lib\libmchp_peripheral_32MX795F512L.a(nvm_operation_lib.o)
 .mdebug.abi32  0xa000188c        0x0 ..\..\..\..\..\..\microchip\xc32\v1.31\pic32mx\lib\libmchp_peripheral_32MX795F512L.a(nvm_write_word_lib.o)
 .mdebug.abi32  0xa000188c        0x0 ..\..\..\..\..\..\microchip\xc32\v1.31\pic32mx\lib\libmchp_peripheral_32MX795F512L.a(port_set_pins_digital_in_lib.o)
 .mdebug.abi32  0xa000188c        0x0 ..\..\..\..\..\..\microchip\xc32\v1.31\pic32mx\lib\libmchp_peripheral_32MX795F512L.a(port_set_pins_digital_out_lib.o)
 .mdebug.abi32  0xa000188c        0x0 ..\..\..\..\..\..\microchip\xc32\v1.31\pic32mx\lib\libmchp_peripheral_32MX795F512L.a(port_read_bits_lib.o)
 .mdebug.abi32  0xa000188c        0x0 ..\..\..\..\..\..\microchip\xc32\v1.31\pic32mx\lib\libmchp_peripheral_32MX795F512L.a(port_clear_bits_lib.o)
 .mdebug.abi32  0xa000188c        0x0 ..\..\..\..\..\..\microchip\xc32\v1.31\pic32mx\lib\libmchp_peripheral_32MX795F512L.a(port_set_bits_lib.o)
 .mdebug.abi32  0xa000188c        0x0 ..\..\..\..\..\..\microchip\xc32\v1.31\pic32mx\lib\libmchp_peripheral_32MX795F512L.a(_ports_tbl_libp.o)
 .mdebug.abi32  0xa000188c        0x0 ..\..\..\..\..\..\microchip\xc32\v1.31\pic32mx\lib\libmchp_peripheral_32MX795F512L.a(uart_lib.o)
 .mdebug.abi32  0xa000188c        0x0 c:/microchip/xc32/v1.31/bin/../lib/gcc/pic32mx/4.5.2\libgcc.a(floatunsisf.o)
 .mdebug.abi32  0xa000188c        0x0 c:/microchip/xc32/v1.31/bin/../lib/gcc/pic32mx/4.5.2/../../../../pic32mx/lib\libpic32.a(default-bootstrap-exception-handler.o)
 .mdebug.abi32  0xa000188c        0x0 c:/microchip/xc32/v1.31/bin/../lib/gcc/pic32mx/4.5.2/../../../../pic32mx/lib\libpic32.a(default-on-reset.o)
 .mdebug.abi32  0xa000188c        0x0 c:/microchip/xc32/v1.31/bin/../lib/gcc/pic32mx/4.5.2/../../../../pic32mx/lib\libpic32.a(default-on-bootstrap.o)
 .mdebug.abi32  0xa000188c        0x0 c:/microchip/xc32/v1.31/bin/../lib/gcc/pic32mx/4.5.2/../../../../pic32mx/lib\libpic32.a(default-general-exception-handler.o)
 .mdebug.abi32  0xa000188c        0x0 c:/microchip/xc32/v1.31/bin/../lib/gcc/pic32mx/4.5.2/../../../../pic32mx/lib\libpic32.a(defaultinterrupt.o)
 .mdebug.abi32  0xa000188c        0x0 c:/microchip/xc32/v1.31/bin/../lib/gcc/pic32mx/4.5.2/../../../../pic32mx/lib\libm.a(w_atan2f.o)
 .mdebug.abi32  0xa000188c        0x0 c:/microchip/xc32/v1.31/bin/../lib/gcc/pic32mx/4.5.2/../../../../pic32mx/lib\libm.a(w_sqrtf.o)
 .mdebug.abi32  0xa000188c        0x0 c:/microchip/xc32/v1.31/bin/../lib/gcc/pic32mx/4.5.2/../../../../pic32mx/lib\libm.a(s_lib_ver.o)
 .mdebug.abi32  0xa000188c        0x0 c:/microchip/xc32/v1.31/bin/../lib/gcc/pic32mx/4.5.2/../../../../pic32mx/lib\libm.a(cabs.o)
 .mdebug.abi32  0xa000188c        0x0 c:/microchip/xc32/v1.31/bin/../lib/gcc/pic32mx/4.5.2/../../../../pic32mx/lib\libm.a(support.o)
 .mdebug.abi32  0xa000188c        0x0 c:/microchip/xc32/v1.31/bin/../lib/gcc/pic32mx/4.5.2/../../../../pic32mx/lib\libm.a(w_ldexp.o)
 .mdebug.abi32  0xa000188c        0x0 c:/microchip/xc32/v1.31/bin/../lib/gcc/pic32mx/4.5.2/../../../../pic32mx/lib\libm.a(w_sqrt.o)
 .mdebug.abi32  0xa000188c        0x0 c:/microchip/xc32/v1.31/bin/../lib/gcc/pic32mx/4.5.2/../../../../pic32mx/lib\libpic32.a(errno.o)
 .mdebug.abi32  0xa000188c        0x0 c:/microchip/xc32/v1.31/bin/../lib/gcc/pic32mx/4.5.2/../../../../pic32mx/lib\libpic32.a(isinf.o)
 .mdebug.abi32  0xa000188c        0x0 c:/microchip/xc32/v1.31/bin/../lib/gcc/pic32mx/4.5.2/../../../../pic32mx/lib\libc.a(itoa.o)
 .mdebug.abi32  0xa000188c        0x0 c:/microchip/xc32/v1.31/bin/../lib/gcc/pic32mx/4.5.2/../../../../pic32mx/lib\libe.a(_unorddf2.o)
 .mdebug.abi32  0xa000188c        0x0 c:/microchip/xc32/v1.31/bin/../lib/gcc/pic32mx/4.5.2/../../../../pic32mx/lib\software-debug-break.o

.mdebug.abiN32
 *(.mdebug.abiN32)

.mdebug.abi64
 *(.mdebug.abi64)

.mdebug.abiO64
 *(.mdebug.abiO64)

.mdebug.eabi32
 *(.mdebug.eabi32)

.mdebug.eabi64
 *(.mdebug.eabi64)

.gcc_compiled_long32
 *(.gcc_compiled_long32)

.gcc_compiled_long64
 *(.gcc_compiled_long64)

.stab
 *(.stab)

.stabstr
 *(.stabstr)

.stab.excl
 *(.stab.excl)

.stab.exclstr
 *(.stab.exclstr)

.stab.index
 *(.stab.index)

.stab.indexstr
 *(.stab.indexstr)

.comment        0x00000000      0x11a
 *(.comment)
 .comment       0x00000000       0x3c build/default/debug/src/app/app_tasks/program_planner.o
                                 0x3d (size before relaxing)
 .comment       0x00000000       0x3d build/default/debug/src/app/app_tasks/g_code.o
 .comment       0x00000000       0x3d build/default/debug/src/app/app_tasks/motion.o
 .comment       0x00000000       0x3d build/default/debug/src/app/app_tasks/nuts_bolts.o
 .comment       0x00000000       0x3d build/default/debug/src/app/app_tasks/settings.o
 .comment       0x00000000       0x3d build/default/debug/src/app/app_tasks/eeprom.o
 .comment       0x00000000       0x3d build/default/debug/src/app/app_tasks/dee_emulation_pic32.o
 .comment       0x00000000       0x3d build/default/debug/src/app/app_tasks/report.o
 .comment       0x00000000       0x3d build/default/debug/src/app/app_tasks/stepper.o
 .comment       0x00000000       0x3d build/default/debug/src/app/system_config/pic32_mx/system_init.o
 .comment       0x00000000       0x3d build/default/debug/src/app/system_config/pic32_mx/system_interrupt.o
 .comment       0x00000000       0x3d build/default/debug/src/app/system_config/pic32_mx/system_task.o
 .comment       0x00000000       0x3d build/default/debug/src/app/main.o
 .comment       0x00000000       0x3d build/default/debug/src/app/app.o
 .comment       0x00000000       0x3d build/default/debug/src/bsp/cnc_rev_00/bsp_sys_init.o
 .comment       0x00000000       0x3d build/default/debug/src/app/app_tasks/protocol.o
 .comment       0x0000003c       0x3c ..\..\..\..\..\..\microchip\xc32\v1.31\pic32mx\lib\libmchp_peripheral_32MX795F512L.a(open_core_timer_lib.o)
                                 0x3d (size before relaxing)
 .comment       0x00000000       0x3d ..\..\..\..\..\..\microchip\xc32\v1.31\pic32mx\lib\libmchp_peripheral_32MX795F512L.a(pcache.o)
 .comment       0x00000000       0x3d ..\..\..\..\..\..\microchip\xc32\v1.31\pic32mx\lib\libmchp_peripheral_32MX795F512L.a(int_configure_system_lib.o)
 .comment       0x00000000       0x3d ..\..\..\..\..\..\microchip\xc32\v1.31\pic32mx\lib\libmchp_peripheral_32MX795F512L.a(int_enable_interrupts_lib.o)
 .comment       0x00000000       0x3d ..\..\..\..\..\..\microchip\xc32\v1.31\pic32mx\lib\libmchp_peripheral_32MX795F512L.a(int_disable_interrupts_lib.o)
 .comment       0x00000000       0x3d ..\..\..\..\..\..\microchip\xc32\v1.31\pic32mx\lib\libmchp_peripheral_32MX795F512L.a(int_restore_interrupts_lib.o)
 .comment       0x00000000       0x3d ..\..\..\..\..\..\microchip\xc32\v1.31\pic32mx\lib\libmchp_peripheral_32MX795F512L.a(int_tbl_lib.o)
 .comment       0x00000000       0x3d ..\..\..\..\..\..\microchip\xc32\v1.31\pic32mx\lib\libmchp_peripheral_32MX795F512L.a(nvm_erase_page_lib.o)
 .comment       0x00000000       0x3d ..\..\..\..\..\..\microchip\xc32\v1.31\pic32mx\lib\libmchp_peripheral_32MX795F512L.a(nvm_operation_lib.o)
 .comment       0x00000000       0x3d ..\..\..\..\..\..\microchip\xc32\v1.31\pic32mx\lib\libmchp_peripheral_32MX795F512L.a(nvm_write_word_lib.o)
 .comment       0x00000000       0x3d ..\..\..\..\..\..\microchip\xc32\v1.31\pic32mx\lib\libmchp_peripheral_32MX795F512L.a(port_set_pins_digital_in_lib.o)
 .comment       0x00000000       0x3d ..\..\..\..\..\..\microchip\xc32\v1.31\pic32mx\lib\libmchp_peripheral_32MX795F512L.a(port_set_pins_digital_out_lib.o)
 .comment       0x00000000       0x3d ..\..\..\..\..\..\microchip\xc32\v1.31\pic32mx\lib\libmchp_peripheral_32MX795F512L.a(port_read_bits_lib.o)
 .comment       0x00000000       0x3d ..\..\..\..\..\..\microchip\xc32\v1.31\pic32mx\lib\libmchp_peripheral_32MX795F512L.a(port_clear_bits_lib.o)
 .comment       0x00000000       0x3d ..\..\..\..\..\..\microchip\xc32\v1.31\pic32mx\lib\libmchp_peripheral_32MX795F512L.a(port_set_bits_lib.o)
 .comment       0x00000000       0x3d ..\..\..\..\..\..\microchip\xc32\v1.31\pic32mx\lib\libmchp_peripheral_32MX795F512L.a(_ports_tbl_libp.o)
 .comment       0x00000000       0x3d ..\..\..\..\..\..\microchip\xc32\v1.31\pic32mx\lib\libmchp_peripheral_32MX795F512L.a(uart_lib.o)
 .comment       0x00000078       0x3c c:/microchip/xc32/v1.31/bin/../lib/gcc/pic32mx/4.5.2\libgcc.a(floatunsisf.o)
                                 0x3d (size before relaxing)
 .comment       0x000000b4       0x18 c:/microchip/xc32/v1.31/bin/../lib/gcc/pic32mx/4.5.2/../../../../pic32mx/lib\libpic32.a(memset.o)
                                 0x19 (size before relaxing)
 .comment       0x00000000       0x3d c:/microchip/xc32/v1.31/bin/../lib/gcc/pic32mx/4.5.2/../../../../pic32mx/lib\libpic32.a(default-bootstrap-exception-handler.o)
 .comment       0x00000000       0x3d c:/microchip/xc32/v1.31/bin/../lib/gcc/pic32mx/4.5.2/../../../../pic32mx/lib\libpic32.a(default-on-reset.o)
 .comment       0x00000000       0x3d c:/microchip/xc32/v1.31/bin/../lib/gcc/pic32mx/4.5.2/../../../../pic32mx/lib\libpic32.a(default-on-bootstrap.o)
 .comment       0x00000000       0x3d c:/microchip/xc32/v1.31/bin/../lib/gcc/pic32mx/4.5.2/../../../../pic32mx/lib\libpic32.a(default-general-exception-handler.o)
 .comment       0x00000000       0x3d c:/microchip/xc32/v1.31/bin/../lib/gcc/pic32mx/4.5.2/../../../../pic32mx/lib\libpic32.a(defaultinterrupt.o)
 .comment       0x00000000       0x3d c:/microchip/xc32/v1.31/bin/../lib/gcc/pic32mx/4.5.2/../../../../pic32mx/lib\libm.a(w_atan2f.o)
 .comment       0x00000000       0x3d c:/microchip/xc32/v1.31/bin/../lib/gcc/pic32mx/4.5.2/../../../../pic32mx/lib\libm.a(w_sqrtf.o)
 .comment       0x00000000       0x3d c:/microchip/xc32/v1.31/bin/../lib/gcc/pic32mx/4.5.2/../../../../pic32mx/lib\libm.a(s_lib_ver.o)
 .comment       0x00000000       0x3d c:/microchip/xc32/v1.31/bin/../lib/gcc/pic32mx/4.5.2/../../../../pic32mx/lib\libm.a(cabs.o)
 .comment       0x00000000       0x3d c:/microchip/xc32/v1.31/bin/../lib/gcc/pic32mx/4.5.2/../../../../pic32mx/lib\libm.a(support.o)
 .comment       0x00000000       0x3d c:/microchip/xc32/v1.31/bin/../lib/gcc/pic32mx/4.5.2/../../../../pic32mx/lib\libm.a(w_ldexp.o)
 .comment       0x00000000       0x3d c:/microchip/xc32/v1.31/bin/../lib/gcc/pic32mx/4.5.2/../../../../pic32mx/lib\libm.a(w_sqrt.o)
 .comment       0x00000000       0x3d c:/microchip/xc32/v1.31/bin/../lib/gcc/pic32mx/4.5.2/../../../../pic32mx/lib\libpic32.a(errno.o)
 .comment       0x00000000       0x3d c:/microchip/xc32/v1.31/bin/../lib/gcc/pic32mx/4.5.2/../../../../pic32mx/lib\libpic32.a(isinf.o)
 .comment       0x00000000       0x3d c:/microchip/xc32/v1.31/bin/../lib/gcc/pic32mx/4.5.2/../../../../pic32mx/lib\libc.a(itoa.o)
 .comment       0x000000cc       0x4e c:/microchip/xc32/v1.31/bin/../lib/gcc/pic32mx/4.5.2/../../../../pic32mx/lib\libe.a(_unorddf2.o)
                                 0x8b (size before relaxing)
 .comment       0x00000000       0x3d c:/microchip/xc32/v1.31/bin/../lib/gcc/pic32mx/4.5.2/../../../../pic32mx/lib\software-debug-break.o

.debug
 *(.debug)

.line
 *(.line)

.debug_srcinfo
 *(.debug_srcinfo)

.debug_sfnames
 *(.debug_sfnames)

.debug_aranges  0x00000000      0x718
 *(.debug_aranges)
 .debug_aranges
                0x00000000       0x20 build/default/debug/src/app/app_tasks/program_planner.o
 .debug_aranges
                0x00000020       0x20 build/default/debug/src/app/app_tasks/g_code.o
 .debug_aranges
                0x00000040       0x20 build/default/debug/src/app/app_tasks/motion.o
 .debug_aranges
                0x00000060       0x20 build/default/debug/src/app/app_tasks/nuts_bolts.o
 .debug_aranges
                0x00000080       0x20 build/default/debug/src/app/app_tasks/settings.o
 .debug_aranges
                0x000000a0       0x20 build/default/debug/src/app/app_tasks/eeprom.o
 .debug_aranges
                0x000000c0       0x20 build/default/debug/src/app/app_tasks/dee_emulation_pic32.o
 .debug_aranges
                0x000000e0       0x20 build/default/debug/src/app/app_tasks/report.o
 .debug_aranges
                0x00000100       0x20 build/default/debug/src/app/app_tasks/stepper.o
 .debug_aranges
                0x00000120       0x20 build/default/debug/src/app/system_config/pic32_mx/system_init.o
 .debug_aranges
                0x00000140       0x20 build/default/debug/src/app/system_config/pic32_mx/system_interrupt.o
 .debug_aranges
                0x00000160       0x20 build/default/debug/src/app/system_config/pic32_mx/system_task.o
 .debug_aranges
                0x00000180       0x20 build/default/debug/src/app/main.o
 .debug_aranges
                0x000001a0       0x20 build/default/debug/src/app/app.o
 .debug_aranges
                0x000001c0       0x20 build/default/debug/src/bsp/cnc_rev_00/bsp_sys_init.o
 .debug_aranges
                0x000001e0       0x20 build/default/debug/src/app/app_tasks/protocol.o
 .debug_aranges
                0x00000200       0x20 ..\..\..\..\..\..\microchip\xc32\v1.31\pic32mx\lib\libmchp_peripheral_32MX795F512L.a(open_core_timer_lib.o)
 .debug_aranges
                0x00000220       0x28 ..\..\..\..\..\..\microchip\xc32\v1.31\pic32mx\lib\libmchp_peripheral_32MX795F512L.a(pcache.o)
 .debug_aranges
                0x00000248       0x20 ..\..\..\..\..\..\microchip\xc32\v1.31\pic32mx\lib\libmchp_peripheral_32MX795F512L.a(int_configure_system_lib.o)
 .debug_aranges
                0x00000268       0x20 ..\..\..\..\..\..\microchip\xc32\v1.31\pic32mx\lib\libmchp_peripheral_32MX795F512L.a(int_enable_interrupts_lib.o)
 .debug_aranges
                0x00000288       0x20 ..\..\..\..\..\..\microchip\xc32\v1.31\pic32mx\lib\libmchp_peripheral_32MX795F512L.a(int_disable_interrupts_lib.o)
 .debug_aranges
                0x000002a8       0x20 ..\..\..\..\..\..\microchip\xc32\v1.31\pic32mx\lib\libmchp_peripheral_32MX795F512L.a(int_restore_interrupts_lib.o)
 .debug_aranges
                0x000002c8       0x60 ..\..\..\..\..\..\microchip\xc32\v1.31\pic32mx\lib\libmchp_peripheral_32MX795F512L.a(int_tbl_lib.o)
 .debug_aranges
                0x00000328       0x20 ..\..\..\..\..\..\microchip\xc32\v1.31\pic32mx\lib\libmchp_peripheral_32MX795F512L.a(nvm_erase_page_lib.o)
 .debug_aranges
                0x00000348       0x20 ..\..\..\..\..\..\microchip\xc32\v1.31\pic32mx\lib\libmchp_peripheral_32MX795F512L.a(nvm_operation_lib.o)
 .debug_aranges
                0x00000368       0x20 ..\..\..\..\..\..\microchip\xc32\v1.31\pic32mx\lib\libmchp_peripheral_32MX795F512L.a(nvm_write_word_lib.o)
 .debug_aranges
                0x00000388       0x20 ..\..\..\..\..\..\microchip\xc32\v1.31\pic32mx\lib\libmchp_peripheral_32MX795F512L.a(port_set_pins_digital_in_lib.o)
 .debug_aranges
                0x000003a8       0x20 ..\..\..\..\..\..\microchip\xc32\v1.31\pic32mx\lib\libmchp_peripheral_32MX795F512L.a(port_set_pins_digital_out_lib.o)
 .debug_aranges
                0x000003c8       0x20 ..\..\..\..\..\..\microchip\xc32\v1.31\pic32mx\lib\libmchp_peripheral_32MX795F512L.a(port_read_bits_lib.o)
 .debug_aranges
                0x000003e8       0x20 ..\..\..\..\..\..\microchip\xc32\v1.31\pic32mx\lib\libmchp_peripheral_32MX795F512L.a(port_clear_bits_lib.o)
 .debug_aranges
                0x00000408       0x20 ..\..\..\..\..\..\microchip\xc32\v1.31\pic32mx\lib\libmchp_peripheral_32MX795F512L.a(port_set_bits_lib.o)
 .debug_aranges
                0x00000428       0x58 ..\..\..\..\..\..\microchip\xc32\v1.31\pic32mx\lib\libmchp_peripheral_32MX795F512L.a(uart_lib.o)
 .debug_aranges
                0x00000480       0x20 c:/microchip/xc32/v1.31/bin/../lib/gcc/pic32mx/4.5.2\libgcc.a(floatunsisf.o)
 .debug_aranges
                0x000004a0       0x20 c:/microchip/xc32/v1.31/bin/../lib/gcc/pic32mx/4.5.2/../../../../pic32mx/lib\libpic32.a(default-bootstrap-exception-handler.o)
 .debug_aranges
                0x000004c0       0x20 c:/microchip/xc32/v1.31/bin/../lib/gcc/pic32mx/4.5.2/../../../../pic32mx/lib\libpic32.a(default-on-reset.o)
 .debug_aranges
                0x000004e0       0x20 c:/microchip/xc32/v1.31/bin/../lib/gcc/pic32mx/4.5.2/../../../../pic32mx/lib\libpic32.a(default-on-bootstrap.o)
 .debug_aranges
                0x00000500       0x20 c:/microchip/xc32/v1.31/bin/../lib/gcc/pic32mx/4.5.2/../../../../pic32mx/lib\libpic32.a(default-general-exception-handler.o)
 .debug_aranges
                0x00000520       0x20 c:/microchip/xc32/v1.31/bin/../lib/gcc/pic32mx/4.5.2/../../../../pic32mx/lib\libpic32.a(defaultinterrupt.o)
 .debug_aranges
                0x00000540       0x20 c:/microchip/xc32/v1.31/bin/../lib/gcc/pic32mx/4.5.2/../../../../pic32mx/lib\libm.a(w_atan2f.o)
 .debug_aranges
                0x00000560       0x20 c:/microchip/xc32/v1.31/bin/../lib/gcc/pic32mx/4.5.2/../../../../pic32mx/lib\libm.a(w_sqrtf.o)
 .debug_aranges
                0x00000580       0x30 c:/microchip/xc32/v1.31/bin/../lib/gcc/pic32mx/4.5.2/../../../../pic32mx/lib\libm.a(cabs.o)
 .debug_aranges
                0x000005b0       0x78 c:/microchip/xc32/v1.31/bin/../lib/gcc/pic32mx/4.5.2/../../../../pic32mx/lib\libm.a(support.o)
 .debug_aranges
                0x00000628       0x20 c:/microchip/xc32/v1.31/bin/../lib/gcc/pic32mx/4.5.2/../../../../pic32mx/lib\libm.a(w_ldexp.o)
 .debug_aranges
                0x00000648       0x20 c:/microchip/xc32/v1.31/bin/../lib/gcc/pic32mx/4.5.2/../../../../pic32mx/lib\libm.a(w_sqrt.o)
 .debug_aranges
                0x00000668       0x48 c:/microchip/xc32/v1.31/bin/../lib/gcc/pic32mx/4.5.2/../../../../pic32mx/lib\libpic32.a(isinf.o)
 .debug_aranges
                0x000006b0       0x28 c:/microchip/xc32/v1.31/bin/../lib/gcc/pic32mx/4.5.2/../../../../pic32mx/lib\libc.a(itoa.o)
 .debug_aranges
                0x000006d8       0x20 c:/microchip/xc32/v1.31/bin/../lib/gcc/pic32mx/4.5.2/../../../../pic32mx/lib\libe.a(_unorddf2.o)
 .debug_aranges
                0x000006f8       0x20 c:/microchip/xc32/v1.31/bin/../lib/gcc/pic32mx/4.5.2/../../../../pic32mx/lib\software-debug-break.o

.debug_pubnames
                0x00000000     0x13db
 *(.debug_pubnames)
 .debug_pubnames
                0x00000000       0xef build/default/debug/src/app/app_tasks/program_planner.o
 .debug_pubnames
                0x000000ef      0x12a build/default/debug/src/app/app_tasks/g_code.o
 .debug_pubnames
                0x00000219       0x50 build/default/debug/src/app/app_tasks/motion.o
 .debug_pubnames
                0x00000269       0x3f build/default/debug/src/app/app_tasks/nuts_bolts.o
 .debug_pubnames
                0x000002a8      0x113 build/default/debug/src/app/app_tasks/settings.o
 .debug_pubnames
                0x000003bb       0x9c build/default/debug/src/app/app_tasks/eeprom.o
 .debug_pubnames
                0x00000457       0xfe build/default/debug/src/app/app_tasks/dee_emulation_pic32.o
 .debug_pubnames
                0x00000555      0x143 build/default/debug/src/app/app_tasks/report.o
 .debug_pubnames
                0x00000698       0x87 build/default/debug/src/app/app_tasks/stepper.o
 .debug_pubnames
                0x0000071f       0x25 build/default/debug/src/app/system_config/pic32_mx/system_init.o
 .debug_pubnames
                0x00000744      0x1a9 build/default/debug/src/app/system_config/pic32_mx/system_interrupt.o
 .debug_pubnames
                0x000008ed       0x20 build/default/debug/src/app/system_config/pic32_mx/system_task.o
 .debug_pubnames
                0x0000090d       0x23 build/default/debug/src/app/main.o
 .debug_pubnames
                0x00000930      0x12c build/default/debug/src/app/app.o
 .debug_pubnames
                0x00000a5c      0x265 build/default/debug/src/bsp/cnc_rev_00/bsp_sys_init.o
 .debug_pubnames
                0x00000cc1       0x78 build/default/debug/src/app/app_tasks/protocol.o
 .debug_pubnames
                0x00000d39       0x24 ..\..\..\..\..\..\microchip\xc32\v1.31\pic32mx\lib\libmchp_peripheral_32MX795F512L.a(open_core_timer_lib.o)
 .debug_pubnames
                0x00000d5d       0x3b ..\..\..\..\..\..\microchip\xc32\v1.31\pic32mx\lib\libmchp_peripheral_32MX795F512L.a(pcache.o)
 .debug_pubnames
                0x00000d98       0x29 ..\..\..\..\..\..\microchip\xc32\v1.31\pic32mx\lib\libmchp_peripheral_32MX795F512L.a(int_configure_system_lib.o)
 .debug_pubnames
                0x00000dc1       0x2a ..\..\..\..\..\..\microchip\xc32\v1.31\pic32mx\lib\libmchp_peripheral_32MX795F512L.a(int_enable_interrupts_lib.o)
 .debug_pubnames
                0x00000deb       0x2b ..\..\..\..\..\..\microchip\xc32\v1.31\pic32mx\lib\libmchp_peripheral_32MX795F512L.a(int_disable_interrupts_lib.o)
 .debug_pubnames
                0x00000e16       0x2b ..\..\..\..\..\..\microchip\xc32\v1.31\pic32mx\lib\libmchp_peripheral_32MX795F512L.a(int_restore_interrupts_lib.o)
 .debug_pubnames
                0x00000e41       0xca ..\..\..\..\..\..\microchip\xc32\v1.31\pic32mx\lib\libmchp_peripheral_32MX795F512L.a(int_tbl_lib.o)
 .debug_pubnames
                0x00000f0b       0x23 ..\..\..\..\..\..\microchip\xc32\v1.31\pic32mx\lib\libmchp_peripheral_32MX795F512L.a(nvm_erase_page_lib.o)
 .debug_pubnames
                0x00000f2e       0x24 ..\..\..\..\..\..\microchip\xc32\v1.31\pic32mx\lib\libmchp_peripheral_32MX795F512L.a(nvm_operation_lib.o)
 .debug_pubnames
                0x00000f52       0x23 ..\..\..\..\..\..\microchip\xc32\v1.31\pic32mx\lib\libmchp_peripheral_32MX795F512L.a(nvm_write_word_lib.o)
 .debug_pubnames
                0x00000f75       0x2b ..\..\..\..\..\..\microchip\xc32\v1.31\pic32mx\lib\libmchp_peripheral_32MX795F512L.a(port_set_pins_digital_in_lib.o)
 .debug_pubnames
                0x00000fa0       0x2c ..\..\..\..\..\..\microchip\xc32\v1.31\pic32mx\lib\libmchp_peripheral_32MX795F512L.a(port_set_pins_digital_out_lib.o)
 .debug_pubnames
                0x00000fcc       0x23 ..\..\..\..\..\..\microchip\xc32\v1.31\pic32mx\lib\libmchp_peripheral_32MX795F512L.a(port_read_bits_lib.o)
 .debug_pubnames
                0x00000fef       0x24 ..\..\..\..\..\..\microchip\xc32\v1.31\pic32mx\lib\libmchp_peripheral_32MX795F512L.a(port_clear_bits_lib.o)
 .debug_pubnames
                0x00001013       0x22 ..\..\..\..\..\..\microchip\xc32\v1.31\pic32mx\lib\libmchp_peripheral_32MX795F512L.a(port_set_bits_lib.o)
 .debug_pubnames
                0x00001035       0xb1 ..\..\..\..\..\..\microchip\xc32\v1.31\pic32mx\lib\libmchp_peripheral_32MX795F512L.a(uart_lib.o)
 .debug_pubnames
                0x000010e6       0x24 c:/microchip/xc32/v1.31/bin/../lib/gcc/pic32mx/4.5.2\libgcc.a(floatunsisf.o)
 .debug_pubnames
                0x0000110a       0x33 c:/microchip/xc32/v1.31/bin/../lib/gcc/pic32mx/4.5.2/../../../../pic32mx/lib\libpic32.a(default-bootstrap-exception-handler.o)
 .debug_pubnames
                0x0000113d       0x20 c:/microchip/xc32/v1.31/bin/../lib/gcc/pic32mx/4.5.2/../../../../pic32mx/lib\libpic32.a(default-on-reset.o)
 .debug_pubnames
                0x0000115d       0x24 c:/microchip/xc32/v1.31/bin/../lib/gcc/pic32mx/4.5.2/../../../../pic32mx/lib\libpic32.a(default-on-bootstrap.o)
 .debug_pubnames
                0x00001181       0x31 c:/microchip/xc32/v1.31/bin/../lib/gcc/pic32mx/4.5.2/../../../../pic32mx/lib\libpic32.a(default-general-exception-handler.o)
 .debug_pubnames
                0x000011b2       0x28 c:/microchip/xc32/v1.31/bin/../lib/gcc/pic32mx/4.5.2/../../../../pic32mx/lib\libpic32.a(defaultinterrupt.o)
 .debug_pubnames
                0x000011da       0x1d c:/microchip/xc32/v1.31/bin/../lib/gcc/pic32mx/4.5.2/../../../../pic32mx/lib\libm.a(w_atan2f.o)
 .debug_pubnames
                0x000011f7       0x1c c:/microchip/xc32/v1.31/bin/../lib/gcc/pic32mx/4.5.2/../../../../pic32mx/lib\libm.a(w_sqrtf.o)
 .debug_pubnames
                0x00001213       0x32 c:/microchip/xc32/v1.31/bin/../lib/gcc/pic32mx/4.5.2/../../../../pic32mx/lib\libm.a(cabs.o)
 .debug_pubnames
                0x00001245       0x98 c:/microchip/xc32/v1.31/bin/../lib/gcc/pic32mx/4.5.2/../../../../pic32mx/lib\libm.a(support.o)
 .debug_pubnames
                0x000012dd       0x1c c:/microchip/xc32/v1.31/bin/../lib/gcc/pic32mx/4.5.2/../../../../pic32mx/lib\libm.a(w_ldexp.o)
 .debug_pubnames
                0x000012f9       0x1b c:/microchip/xc32/v1.31/bin/../lib/gcc/pic32mx/4.5.2/../../../../pic32mx/lib\libm.a(w_sqrt.o)
 .debug_pubnames
                0x00001314       0x52 c:/microchip/xc32/v1.31/bin/../lib/gcc/pic32mx/4.5.2/../../../../pic32mx/lib\libpic32.a(isinf.o)
 .debug_pubnames
                0x00001366       0x24 c:/microchip/xc32/v1.31/bin/../lib/gcc/pic32mx/4.5.2/../../../../pic32mx/lib\libc.a(itoa.o)
 .debug_pubnames
                0x0000138a       0x21 c:/microchip/xc32/v1.31/bin/../lib/gcc/pic32mx/4.5.2/../../../../pic32mx/lib\libe.a(_unorddf2.o)
 .debug_pubnames
                0x000013ab       0x30 c:/microchip/xc32/v1.31/bin/../lib/gcc/pic32mx/4.5.2/../../../../pic32mx/lib\software-debug-break.o

.debug_info     0x00000000    0x1a17b
 *(.debug_info .gnu.linkonce.wi.*)
 .debug_info    0x00000000     0x1ec2 build/default/debug/src/app/app_tasks/program_planner.o
 .debug_info    0x00001ec2     0x1c65 build/default/debug/src/app/app_tasks/g_code.o
 .debug_info    0x00003b27     0x1f87 build/default/debug/src/app/app_tasks/motion.o
 .debug_info    0x00005aae      0x392 build/default/debug/src/app/app_tasks/nuts_bolts.o
 .debug_info    0x00005e40      0x724 build/default/debug/src/app/app_tasks/settings.o
 .debug_info    0x00006564     0x1369 build/default/debug/src/app/app_tasks/eeprom.o
 .debug_info    0x000078cd     0x199e build/default/debug/src/app/app_tasks/dee_emulation_pic32.o
 .debug_info    0x0000926b     0x19ff build/default/debug/src/app/app_tasks/report.o
 .debug_info    0x0000ac6a     0x1d16 build/default/debug/src/app/app_tasks/stepper.o
 .debug_info    0x0000c980     0x1566 build/default/debug/src/app/system_config/pic32_mx/system_init.o
 .debug_info    0x0000dee6     0x2376 build/default/debug/src/app/system_config/pic32_mx/system_interrupt.o
 .debug_info    0x0001025c     0x119e build/default/debug/src/app/system_config/pic32_mx/system_task.o
 .debug_info    0x000113fa     0x127d build/default/debug/src/app/main.o
 .debug_info    0x00012677     0x18df build/default/debug/src/app/app.o
 .debug_info    0x00013f56     0x313c build/default/debug/src/bsp/cnc_rev_00/bsp_sys_init.o
 .debug_info    0x00017092     0x1632 build/default/debug/src/app/app_tasks/protocol.o
 .debug_info    0x000186c4       0xaa ..\..\..\..\..\..\microchip\xc32\v1.31\pic32mx\lib\libmchp_peripheral_32MX795F512L.a(open_core_timer_lib.o)
 .debug_info    0x0001876e       0xbf ..\..\..\..\..\..\microchip\xc32\v1.31\pic32mx\lib\libmchp_peripheral_32MX795F512L.a(pcache.o)
 .debug_info    0x0001882d       0xb2 ..\..\..\..\..\..\microchip\xc32\v1.31\pic32mx\lib\libmchp_peripheral_32MX795F512L.a(int_configure_system_lib.o)
 .debug_info    0x000188df       0xb4 ..\..\..\..\..\..\microchip\xc32\v1.31\pic32mx\lib\libmchp_peripheral_32MX795F512L.a(int_enable_interrupts_lib.o)
 .debug_info    0x00018993       0xb6 ..\..\..\..\..\..\microchip\xc32\v1.31\pic32mx\lib\libmchp_peripheral_32MX795F512L.a(int_disable_interrupts_lib.o)
 .debug_info    0x00018a49       0xb6 ..\..\..\..\..\..\microchip\xc32\v1.31\pic32mx\lib\libmchp_peripheral_32MX795F512L.a(int_restore_interrupts_lib.o)
 .debug_info    0x00018aff      0x196 ..\..\..\..\..\..\microchip\xc32\v1.31\pic32mx\lib\libmchp_peripheral_32MX795F512L.a(int_tbl_lib.o)
 .debug_info    0x00018c95       0xa6 ..\..\..\..\..\..\microchip\xc32\v1.31\pic32mx\lib\libmchp_peripheral_32MX795F512L.a(nvm_erase_page_lib.o)
 .debug_info    0x00018d3b       0xc7 ..\..\..\..\..\..\microchip\xc32\v1.31\pic32mx\lib\libmchp_peripheral_32MX795F512L.a(nvm_operation_lib.o)
 .debug_info    0x00018e02       0xa6 ..\..\..\..\..\..\microchip\xc32\v1.31\pic32mx\lib\libmchp_peripheral_32MX795F512L.a(nvm_write_word_lib.o)
 .debug_info    0x00018ea8       0xba ..\..\..\..\..\..\microchip\xc32\v1.31\pic32mx\lib\libmchp_peripheral_32MX795F512L.a(port_set_pins_digital_in_lib.o)
 .debug_info    0x00018f62       0xbc ..\..\..\..\..\..\microchip\xc32\v1.31\pic32mx\lib\libmchp_peripheral_32MX795F512L.a(port_set_pins_digital_out_lib.o)
 .debug_info    0x0001901e       0xa8 ..\..\..\..\..\..\microchip\xc32\v1.31\pic32mx\lib\libmchp_peripheral_32MX795F512L.a(port_read_bits_lib.o)
 .debug_info    0x000190c6       0xaa ..\..\..\..\..\..\microchip\xc32\v1.31\pic32mx\lib\libmchp_peripheral_32MX795F512L.a(port_clear_bits_lib.o)
 .debug_info    0x00019170       0xa6 ..\..\..\..\..\..\microchip\xc32\v1.31\pic32mx\lib\libmchp_peripheral_32MX795F512L.a(port_set_bits_lib.o)
 .debug_info    0x00019216        0x0 ..\..\..\..\..\..\microchip\xc32\v1.31\pic32mx\lib\libmchp_peripheral_32MX795F512L.a(_ports_tbl_libp.o)
 .debug_info    0x00019216      0x175 ..\..\..\..\..\..\microchip\xc32\v1.31\pic32mx\lib\libmchp_peripheral_32MX795F512L.a(uart_lib.o)
 .debug_info    0x0001938b      0x157 c:/microchip/xc32/v1.31/bin/../lib/gcc/pic32mx/4.5.2\libgcc.a(floatunsisf.o)
 .debug_info    0x000194e2       0xde c:/microchip/xc32/v1.31/bin/../lib/gcc/pic32mx/4.5.2/../../../../pic32mx/lib\libpic32.a(default-bootstrap-exception-handler.o)
 .debug_info    0x000195c0       0xb8 c:/microchip/xc32/v1.31/bin/../lib/gcc/pic32mx/4.5.2/../../../../pic32mx/lib\libpic32.a(default-on-reset.o)
 .debug_info    0x00019678       0xc0 c:/microchip/xc32/v1.31/bin/../lib/gcc/pic32mx/4.5.2/../../../../pic32mx/lib\libpic32.a(default-on-bootstrap.o)
 .debug_info    0x00019738       0xda c:/microchip/xc32/v1.31/bin/../lib/gcc/pic32mx/4.5.2/../../../../pic32mx/lib\libpic32.a(default-general-exception-handler.o)
 .debug_info    0x00019812       0xd2 c:/microchip/xc32/v1.31/bin/../lib/gcc/pic32mx/4.5.2/../../../../pic32mx/lib\libpic32.a(defaultinterrupt.o)
 .debug_info    0x000198e4       0xc6 c:/microchip/xc32/v1.31/bin/../lib/gcc/pic32mx/4.5.2/../../../../pic32mx/lib\libm.a(w_atan2f.o)
 .debug_info    0x000199aa       0xa8 c:/microchip/xc32/v1.31/bin/../lib/gcc/pic32mx/4.5.2/../../../../pic32mx/lib\libm.a(w_sqrtf.o)
 .debug_info    0x00019a52        0x0 c:/microchip/xc32/v1.31/bin/../lib/gcc/pic32mx/4.5.2/../../../../pic32mx/lib\libm.a(s_lib_ver.o)
 .debug_info    0x00019a52       0xde c:/microchip/xc32/v1.31/bin/../lib/gcc/pic32mx/4.5.2/../../../../pic32mx/lib\libm.a(cabs.o)
 .debug_info    0x00019b30      0x19e c:/microchip/xc32/v1.31/bin/../lib/gcc/pic32mx/4.5.2/../../../../pic32mx/lib\libm.a(support.o)
 .debug_info    0x00019cce       0xaf c:/microchip/xc32/v1.31/bin/../lib/gcc/pic32mx/4.5.2/../../../../pic32mx/lib\libm.a(w_ldexp.o)
 .debug_info    0x00019d7d       0xa6 c:/microchip/xc32/v1.31/bin/../lib/gcc/pic32mx/4.5.2/../../../../pic32mx/lib\libm.a(w_sqrt.o)
 .debug_info    0x00019e23        0x0 c:/microchip/xc32/v1.31/bin/../lib/gcc/pic32mx/4.5.2/../../../../pic32mx/lib\libpic32.a(errno.o)
 .debug_info    0x00019e23      0x111 c:/microchip/xc32/v1.31/bin/../lib/gcc/pic32mx/4.5.2/../../../../pic32mx/lib\libpic32.a(isinf.o)
 .debug_info    0x00019f34       0xc0 c:/microchip/xc32/v1.31/bin/../lib/gcc/pic32mx/4.5.2/../../../../pic32mx/lib\libc.a(itoa.o)
 .debug_info    0x00019ff4       0xb9 c:/microchip/xc32/v1.31/bin/../lib/gcc/pic32mx/4.5.2/../../../../pic32mx/lib\libe.a(_unorddf2.o)
 .debug_info    0x0001a0ad       0xce c:/microchip/xc32/v1.31/bin/../lib/gcc/pic32mx/4.5.2/../../../../pic32mx/lib\software-debug-break.o

.debug_abbrev   0x00000000     0x2837
 *(.debug_abbrev)
 .debug_abbrev  0x00000000      0x27f build/default/debug/src/app/app_tasks/program_planner.o
 .debug_abbrev  0x0000027f      0x2df build/default/debug/src/app/app_tasks/g_code.o
 .debug_abbrev  0x0000055e      0x282 build/default/debug/src/app/app_tasks/motion.o
 .debug_abbrev  0x000007e0       0xdd build/default/debug/src/app/app_tasks/nuts_bolts.o
 .debug_abbrev  0x000008bd      0x15a build/default/debug/src/app/app_tasks/settings.o
 .debug_abbrev  0x00000a17      0x20b build/default/debug/src/app/app_tasks/eeprom.o
 .debug_abbrev  0x00000c22      0x256 build/default/debug/src/app/app_tasks/dee_emulation_pic32.o
 .debug_abbrev  0x00000e78      0x25a build/default/debug/src/app/app_tasks/report.o
 .debug_abbrev  0x000010d2      0x261 build/default/debug/src/app/app_tasks/stepper.o
 .debug_abbrev  0x00001333      0x294 build/default/debug/src/app/system_config/pic32_mx/system_init.o
 .debug_abbrev  0x000015c7      0x295 build/default/debug/src/app/system_config/pic32_mx/system_interrupt.o
 .debug_abbrev  0x0000185c      0x17b build/default/debug/src/app/system_config/pic32_mx/system_task.o
 .debug_abbrev  0x000019d7      0x1cb build/default/debug/src/app/main.o
 .debug_abbrev  0x00001ba2      0x22c build/default/debug/src/app/app.o
 .debug_abbrev  0x00001dce      0x2fd build/default/debug/src/bsp/cnc_rev_00/bsp_sys_init.o
 .debug_abbrev  0x000020cb      0x20d build/default/debug/src/app/app_tasks/protocol.o
 .debug_abbrev  0x000022d8       0x25 ..\..\..\..\..\..\microchip\xc32\v1.31\pic32mx\lib\libmchp_peripheral_32MX795F512L.a(open_core_timer_lib.o)
 .debug_abbrev  0x000022fd       0x25 ..\..\..\..\..\..\microchip\xc32\v1.31\pic32mx\lib\libmchp_peripheral_32MX795F512L.a(pcache.o)
 .debug_abbrev  0x00002322       0x25 ..\..\..\..\..\..\microchip\xc32\v1.31\pic32mx\lib\libmchp_peripheral_32MX795F512L.a(int_configure_system_lib.o)
 .debug_abbrev  0x00002347       0x25 ..\..\..\..\..\..\microchip\xc32\v1.31\pic32mx\lib\libmchp_peripheral_32MX795F512L.a(int_enable_interrupts_lib.o)
 .debug_abbrev  0x0000236c       0x25 ..\..\..\..\..\..\microchip\xc32\v1.31\pic32mx\lib\libmchp_peripheral_32MX795F512L.a(int_disable_interrupts_lib.o)
 .debug_abbrev  0x00002391       0x25 ..\..\..\..\..\..\microchip\xc32\v1.31\pic32mx\lib\libmchp_peripheral_32MX795F512L.a(int_restore_interrupts_lib.o)
 .debug_abbrev  0x000023b6       0x25 ..\..\..\..\..\..\microchip\xc32\v1.31\pic32mx\lib\libmchp_peripheral_32MX795F512L.a(int_tbl_lib.o)
 .debug_abbrev  0x000023db       0x25 ..\..\..\..\..\..\microchip\xc32\v1.31\pic32mx\lib\libmchp_peripheral_32MX795F512L.a(nvm_erase_page_lib.o)
 .debug_abbrev  0x00002400       0x34 ..\..\..\..\..\..\microchip\xc32\v1.31\pic32mx\lib\libmchp_peripheral_32MX795F512L.a(nvm_operation_lib.o)
 .debug_abbrev  0x00002434       0x25 ..\..\..\..\..\..\microchip\xc32\v1.31\pic32mx\lib\libmchp_peripheral_32MX795F512L.a(nvm_write_word_lib.o)
 .debug_abbrev  0x00002459       0x25 ..\..\..\..\..\..\microchip\xc32\v1.31\pic32mx\lib\libmchp_peripheral_32MX795F512L.a(port_set_pins_digital_in_lib.o)
 .debug_abbrev  0x0000247e       0x25 ..\..\..\..\..\..\microchip\xc32\v1.31\pic32mx\lib\libmchp_peripheral_32MX795F512L.a(port_set_pins_digital_out_lib.o)
 .debug_abbrev  0x000024a3       0x25 ..\..\..\..\..\..\microchip\xc32\v1.31\pic32mx\lib\libmchp_peripheral_32MX795F512L.a(port_read_bits_lib.o)
 .debug_abbrev  0x000024c8       0x25 ..\..\..\..\..\..\microchip\xc32\v1.31\pic32mx\lib\libmchp_peripheral_32MX795F512L.a(port_clear_bits_lib.o)
 .debug_abbrev  0x000024ed       0x25 ..\..\..\..\..\..\microchip\xc32\v1.31\pic32mx\lib\libmchp_peripheral_32MX795F512L.a(port_set_bits_lib.o)
 .debug_abbrev  0x00002512        0x1 ..\..\..\..\..\..\microchip\xc32\v1.31\pic32mx\lib\libmchp_peripheral_32MX795F512L.a(_ports_tbl_libp.o)
 .debug_abbrev  0x00002513       0x38 ..\..\..\..\..\..\microchip\xc32\v1.31\pic32mx\lib\libmchp_peripheral_32MX795F512L.a(uart_lib.o)
 .debug_abbrev  0x0000254b       0x61 c:/microchip/xc32/v1.31/bin/../lib/gcc/pic32mx/4.5.2\libgcc.a(floatunsisf.o)
 .debug_abbrev  0x000025ac       0x23 c:/microchip/xc32/v1.31/bin/../lib/gcc/pic32mx/4.5.2/../../../../pic32mx/lib\libpic32.a(default-bootstrap-exception-handler.o)
 .debug_abbrev  0x000025cf       0x23 c:/microchip/xc32/v1.31/bin/../lib/gcc/pic32mx/4.5.2/../../../../pic32mx/lib\libpic32.a(default-on-reset.o)
 .debug_abbrev  0x000025f2       0x23 c:/microchip/xc32/v1.31/bin/../lib/gcc/pic32mx/4.5.2/../../../../pic32mx/lib\libpic32.a(default-on-bootstrap.o)
 .debug_abbrev  0x00002615       0x23 c:/microchip/xc32/v1.31/bin/../lib/gcc/pic32mx/4.5.2/../../../../pic32mx/lib\libpic32.a(default-general-exception-handler.o)
 .debug_abbrev  0x00002638       0x23 c:/microchip/xc32/v1.31/bin/../lib/gcc/pic32mx/4.5.2/../../../../pic32mx/lib\libpic32.a(defaultinterrupt.o)
 .debug_abbrev  0x0000265b       0x3f c:/microchip/xc32/v1.31/bin/../lib/gcc/pic32mx/4.5.2/../../../../pic32mx/lib\libm.a(w_atan2f.o)
 .debug_abbrev  0x0000269a       0x23 c:/microchip/xc32/v1.31/bin/../lib/gcc/pic32mx/4.5.2/../../../../pic32mx/lib\libm.a(w_sqrtf.o)
 .debug_abbrev  0x000026bd        0x1 c:/microchip/xc32/v1.31/bin/../lib/gcc/pic32mx/4.5.2/../../../../pic32mx/lib\libm.a(s_lib_ver.o)
 .debug_abbrev  0x000026be       0x47 c:/microchip/xc32/v1.31/bin/../lib/gcc/pic32mx/4.5.2/../../../../pic32mx/lib\libm.a(cabs.o)
 .debug_abbrev  0x00002705       0x52 c:/microchip/xc32/v1.31/bin/../lib/gcc/pic32mx/4.5.2/../../../../pic32mx/lib\libm.a(support.o)
 .debug_abbrev  0x00002757       0x23 c:/microchip/xc32/v1.31/bin/../lib/gcc/pic32mx/4.5.2/../../../../pic32mx/lib\libm.a(w_ldexp.o)
 .debug_abbrev  0x0000277a       0x23 c:/microchip/xc32/v1.31/bin/../lib/gcc/pic32mx/4.5.2/../../../../pic32mx/lib\libm.a(w_sqrt.o)
 .debug_abbrev  0x0000279d        0x1 c:/microchip/xc32/v1.31/bin/../lib/gcc/pic32mx/4.5.2/../../../../pic32mx/lib\libpic32.a(errno.o)
 .debug_abbrev  0x0000279e       0x23 c:/microchip/xc32/v1.31/bin/../lib/gcc/pic32mx/4.5.2/../../../../pic32mx/lib\libpic32.a(isinf.o)
 .debug_abbrev  0x000027c1       0x23 c:/microchip/xc32/v1.31/bin/../lib/gcc/pic32mx/4.5.2/../../../../pic32mx/lib\libc.a(itoa.o)
 .debug_abbrev  0x000027e4       0x30 c:/microchip/xc32/v1.31/bin/../lib/gcc/pic32mx/4.5.2/../../../../pic32mx/lib\libe.a(_unorddf2.o)
 .debug_abbrev  0x00002814       0x23 c:/microchip/xc32/v1.31/bin/../lib/gcc/pic32mx/4.5.2/../../../../pic32mx/lib\software-debug-break.o

.debug_line     0x00000000     0x3e3c
 *(.debug_line)
 .debug_line    0x00000000      0x3b2 build/default/debug/src/app/app_tasks/program_planner.o
 .debug_line    0x000003b2      0x434 build/default/debug/src/app/app_tasks/g_code.o
 .debug_line    0x000007e6      0x441 build/default/debug/src/app/app_tasks/motion.o
 .debug_line    0x00000c27      0x12c build/default/debug/src/app/app_tasks/nuts_bolts.o
 .debug_line    0x00000d53      0x1b9 build/default/debug/src/app/app_tasks/settings.o
 .debug_line    0x00000f0c      0x17d build/default/debug/src/app/app_tasks/eeprom.o
 .debug_line    0x00001089      0x3ca build/default/debug/src/app/app_tasks/dee_emulation_pic32.o
 .debug_line    0x00001453      0x394 build/default/debug/src/app/app_tasks/report.o
 .debug_line    0x000017e7      0x348 build/default/debug/src/app/app_tasks/stepper.o
 .debug_line    0x00001b2f      0x209 build/default/debug/src/app/system_config/pic32_mx/system_init.o
 .debug_line    0x00001d38      0x418 build/default/debug/src/app/system_config/pic32_mx/system_interrupt.o
 .debug_line    0x00002150      0x161 build/default/debug/src/app/system_config/pic32_mx/system_task.o
 .debug_line    0x000022b1      0x1ed build/default/debug/src/app/main.o
 .debug_line    0x0000249e      0x2cc build/default/debug/src/app/app.o
 .debug_line    0x0000276a      0x511 build/default/debug/src/bsp/cnc_rev_00/bsp_sys_init.o
 .debug_line    0x00002c7b      0x27a build/default/debug/src/app/app_tasks/protocol.o
 .debug_line    0x00002ef5       0x6e ..\..\..\..\..\..\microchip\xc32\v1.31\pic32mx\lib\libmchp_peripheral_32MX795F512L.a(open_core_timer_lib.o)
 .debug_line    0x00002f63       0x62 ..\..\..\..\..\..\microchip\xc32\v1.31\pic32mx\lib\libmchp_peripheral_32MX795F512L.a(pcache.o)
 .debug_line    0x00002fc5       0x71 ..\..\..\..\..\..\microchip\xc32\v1.31\pic32mx\lib\libmchp_peripheral_32MX795F512L.a(int_configure_system_lib.o)
 .debug_line    0x00003036       0x72 ..\..\..\..\..\..\microchip\xc32\v1.31\pic32mx\lib\libmchp_peripheral_32MX795F512L.a(int_enable_interrupts_lib.o)
 .debug_line    0x000030a8       0x73 ..\..\..\..\..\..\microchip\xc32\v1.31\pic32mx\lib\libmchp_peripheral_32MX795F512L.a(int_disable_interrupts_lib.o)
 .debug_line    0x0000311b       0x73 ..\..\..\..\..\..\microchip\xc32\v1.31\pic32mx\lib\libmchp_peripheral_32MX795F512L.a(int_restore_interrupts_lib.o)
 .debug_line    0x0000318e       0x64 ..\..\..\..\..\..\microchip\xc32\v1.31\pic32mx\lib\libmchp_peripheral_32MX795F512L.a(int_tbl_lib.o)
 .debug_line    0x000031f2       0x6b ..\..\..\..\..\..\microchip\xc32\v1.31\pic32mx\lib\libmchp_peripheral_32MX795F512L.a(nvm_erase_page_lib.o)
 .debug_line    0x0000325d       0xc0 ..\..\..\..\..\..\microchip\xc32\v1.31\pic32mx\lib\libmchp_peripheral_32MX795F512L.a(nvm_operation_lib.o)
 .debug_line    0x0000331d       0x6b ..\..\..\..\..\..\microchip\xc32\v1.31\pic32mx\lib\libmchp_peripheral_32MX795F512L.a(nvm_write_word_lib.o)
 .debug_line    0x00003388       0x77 ..\..\..\..\..\..\microchip\xc32\v1.31\pic32mx\lib\libmchp_peripheral_32MX795F512L.a(port_set_pins_digital_in_lib.o)
 .debug_line    0x000033ff       0x78 ..\..\..\..\..\..\microchip\xc32\v1.31\pic32mx\lib\libmchp_peripheral_32MX795F512L.a(port_set_pins_digital_out_lib.o)
 .debug_line    0x00003477       0x6d ..\..\..\..\..\..\microchip\xc32\v1.31\pic32mx\lib\libmchp_peripheral_32MX795F512L.a(port_read_bits_lib.o)
 .debug_line    0x000034e4       0x6e ..\..\..\..\..\..\microchip\xc32\v1.31\pic32mx\lib\libmchp_peripheral_32MX795F512L.a(port_clear_bits_lib.o)
 .debug_line    0x00003552       0x6c ..\..\..\..\..\..\microchip\xc32\v1.31\pic32mx\lib\libmchp_peripheral_32MX795F512L.a(port_set_bits_lib.o)
 .debug_line    0x000035be        0x0 ..\..\..\..\..\..\microchip\xc32\v1.31\pic32mx\lib\libmchp_peripheral_32MX795F512L.a(_ports_tbl_libp.o)
 .debug_line    0x000035be       0x62 ..\..\..\..\..\..\microchip\xc32\v1.31\pic32mx\lib\libmchp_peripheral_32MX795F512L.a(uart_lib.o)
 .debug_line    0x00003620       0x8e c:/microchip/xc32/v1.31/bin/../lib/gcc/pic32mx/4.5.2\libgcc.a(floatunsisf.o)
 .debug_line    0x000036ae       0x97 c:/microchip/xc32/v1.31/bin/../lib/gcc/pic32mx/4.5.2/../../../../pic32mx/lib\libpic32.a(default-bootstrap-exception-handler.o)
 .debug_line    0x00003745       0x84 c:/microchip/xc32/v1.31/bin/../lib/gcc/pic32mx/4.5.2/../../../../pic32mx/lib\libpic32.a(default-on-reset.o)
 .debug_line    0x000037c9       0x88 c:/microchip/xc32/v1.31/bin/../lib/gcc/pic32mx/4.5.2/../../../../pic32mx/lib\libpic32.a(default-on-bootstrap.o)
 .debug_line    0x00003851       0x95 c:/microchip/xc32/v1.31/bin/../lib/gcc/pic32mx/4.5.2/../../../../pic32mx/lib\libpic32.a(default-general-exception-handler.o)
 .debug_line    0x000038e6       0x96 c:/microchip/xc32/v1.31/bin/../lib/gcc/pic32mx/4.5.2/../../../../pic32mx/lib\libpic32.a(defaultinterrupt.o)
 .debug_line    0x0000397c       0x79 c:/microchip/xc32/v1.31/bin/../lib/gcc/pic32mx/4.5.2/../../../../pic32mx/lib\libm.a(w_atan2f.o)
 .debug_line    0x000039f5       0x78 c:/microchip/xc32/v1.31/bin/../lib/gcc/pic32mx/4.5.2/../../../../pic32mx/lib\libm.a(w_sqrtf.o)
 .debug_line    0x00003a6d        0x0 c:/microchip/xc32/v1.31/bin/../lib/gcc/pic32mx/4.5.2/../../../../pic32mx/lib\libm.a(s_lib_ver.o)
 .debug_line    0x00003a6d       0x73 c:/microchip/xc32/v1.31/bin/../lib/gcc/pic32mx/4.5.2/../../../../pic32mx/lib\libm.a(cabs.o)
 .debug_line    0x00003ae0       0x76 c:/microchip/xc32/v1.31/bin/../lib/gcc/pic32mx/4.5.2/../../../../pic32mx/lib\libm.a(support.o)
 .debug_line    0x00003b56       0x7f c:/microchip/xc32/v1.31/bin/../lib/gcc/pic32mx/4.5.2/../../../../pic32mx/lib\libm.a(w_ldexp.o)
 .debug_line    0x00003bd5       0x77 c:/microchip/xc32/v1.31/bin/../lib/gcc/pic32mx/4.5.2/../../../../pic32mx/lib\libm.a(w_sqrt.o)
 .debug_line    0x00003c4c        0x0 c:/microchip/xc32/v1.31/bin/../lib/gcc/pic32mx/4.5.2/../../../../pic32mx/lib\libpic32.a(errno.o)
 .debug_line    0x00003c4c       0x79 c:/microchip/xc32/v1.31/bin/../lib/gcc/pic32mx/4.5.2/../../../../pic32mx/lib\libpic32.a(isinf.o)
 .debug_line    0x00003cc5       0x6e c:/microchip/xc32/v1.31/bin/../lib/gcc/pic32mx/4.5.2/../../../../pic32mx/lib\libc.a(itoa.o)
 .debug_line    0x00003d33       0x7f c:/microchip/xc32/v1.31/bin/../lib/gcc/pic32mx/4.5.2/../../../../pic32mx/lib\libe.a(_unorddf2.o)
 .debug_line    0x00003db2       0x8a c:/microchip/xc32/v1.31/bin/../lib/gcc/pic32mx/4.5.2/../../../../pic32mx/lib\software-debug-break.o

.debug_frame    0x00000000     0x16dc
 *(.debug_frame)
 .debug_frame   0x00000000      0x284 build/default/debug/src/app/app_tasks/program_planner.o
 .debug_frame   0x00000284       0xd8 build/default/debug/src/app/app_tasks/g_code.o
 .debug_frame   0x0000035c       0x88 build/default/debug/src/app/app_tasks/motion.o
 .debug_frame   0x000003e4       0x48 build/default/debug/src/app/app_tasks/nuts_bolts.o
 .debug_frame   0x0000042c      0x110 build/default/debug/src/app/app_tasks/settings.o
 .debug_frame   0x0000053c       0x80 build/default/debug/src/app/app_tasks/eeprom.o
 .debug_frame   0x000005bc      0x148 build/default/debug/src/app/app_tasks/dee_emulation_pic32.o
 .debug_frame   0x00000704      0x19c build/default/debug/src/app/app_tasks/report.o
 .debug_frame   0x000008a0      0x10c build/default/debug/src/app/app_tasks/stepper.o
 .debug_frame   0x000009ac       0x2c build/default/debug/src/app/system_config/pic32_mx/system_init.o
 .debug_frame   0x000009d8      0x208 build/default/debug/src/app/system_config/pic32_mx/system_interrupt.o
 .debug_frame   0x00000be0       0x2c build/default/debug/src/app/system_config/pic32_mx/system_task.o
 .debug_frame   0x00000c0c       0x2c build/default/debug/src/app/main.o
 .debug_frame   0x00000c38       0x64 build/default/debug/src/app/app.o
 .debug_frame   0x00000c9c      0x244 build/default/debug/src/bsp/cnc_rev_00/bsp_sys_init.o
 .debug_frame   0x00000ee0       0x9c build/default/debug/src/app/app_tasks/protocol.o
 .debug_frame   0x00000f7c       0x20 ..\..\..\..\..\..\microchip\xc32\v1.31\pic32mx\lib\libmchp_peripheral_32MX795F512L.a(open_core_timer_lib.o)
 .debug_frame   0x00000f9c       0x30 ..\..\..\..\..\..\microchip\xc32\v1.31\pic32mx\lib\libmchp_peripheral_32MX795F512L.a(pcache.o)
 .debug_frame   0x00000fcc       0x20 ..\..\..\..\..\..\microchip\xc32\v1.31\pic32mx\lib\libmchp_peripheral_32MX795F512L.a(int_configure_system_lib.o)
 .debug_frame   0x00000fec       0x20 ..\..\..\..\..\..\microchip\xc32\v1.31\pic32mx\lib\libmchp_peripheral_32MX795F512L.a(int_enable_interrupts_lib.o)
 .debug_frame   0x0000100c       0x20 ..\..\..\..\..\..\microchip\xc32\v1.31\pic32mx\lib\libmchp_peripheral_32MX795F512L.a(int_disable_interrupts_lib.o)
 .debug_frame   0x0000102c       0x20 ..\..\..\..\..\..\microchip\xc32\v1.31\pic32mx\lib\libmchp_peripheral_32MX795F512L.a(int_restore_interrupts_lib.o)
 .debug_frame   0x0000104c       0xa0 ..\..\..\..\..\..\microchip\xc32\v1.31\pic32mx\lib\libmchp_peripheral_32MX795F512L.a(int_tbl_lib.o)
 .debug_frame   0x000010ec       0x28 ..\..\..\..\..\..\microchip\xc32\v1.31\pic32mx\lib\libmchp_peripheral_32MX795F512L.a(nvm_erase_page_lib.o)
 .debug_frame   0x00001114       0x28 ..\..\..\..\..\..\microchip\xc32\v1.31\pic32mx\lib\libmchp_peripheral_32MX795F512L.a(nvm_operation_lib.o)
 .debug_frame   0x0000113c       0x28 ..\..\..\..\..\..\microchip\xc32\v1.31\pic32mx\lib\libmchp_peripheral_32MX795F512L.a(nvm_write_word_lib.o)
 .debug_frame   0x00001164       0x20 ..\..\..\..\..\..\microchip\xc32\v1.31\pic32mx\lib\libmchp_peripheral_32MX795F512L.a(port_set_pins_digital_in_lib.o)
 .debug_frame   0x00001184       0x20 ..\..\..\..\..\..\microchip\xc32\v1.31\pic32mx\lib\libmchp_peripheral_32MX795F512L.a(port_set_pins_digital_out_lib.o)
 .debug_frame   0x000011a4       0x20 ..\..\..\..\..\..\microchip\xc32\v1.31\pic32mx\lib\libmchp_peripheral_32MX795F512L.a(port_read_bits_lib.o)
 .debug_frame   0x000011c4       0x20 ..\..\..\..\..\..\microchip\xc32\v1.31\pic32mx\lib\libmchp_peripheral_32MX795F512L.a(port_clear_bits_lib.o)
 .debug_frame   0x000011e4       0x20 ..\..\..\..\..\..\microchip\xc32\v1.31\pic32mx\lib\libmchp_peripheral_32MX795F512L.a(port_set_bits_lib.o)
 .debug_frame   0x00001204       0x90 ..\..\..\..\..\..\microchip\xc32\v1.31\pic32mx\lib\libmchp_peripheral_32MX795F512L.a(uart_lib.o)
 .debug_frame   0x00001294       0x28 c:/microchip/xc32/v1.31/bin/../lib/gcc/pic32mx/4.5.2\libgcc.a(floatunsisf.o)
 .debug_frame   0x000012bc       0x28 c:/microchip/xc32/v1.31/bin/../lib/gcc/pic32mx/4.5.2/../../../../pic32mx/lib\libpic32.a(default-bootstrap-exception-handler.o)
 .debug_frame   0x000012e4       0x20 c:/microchip/xc32/v1.31/bin/../lib/gcc/pic32mx/4.5.2/../../../../pic32mx/lib\libpic32.a(default-on-reset.o)
 .debug_frame   0x00001304       0x20 c:/microchip/xc32/v1.31/bin/../lib/gcc/pic32mx/4.5.2/../../../../pic32mx/lib\libpic32.a(default-on-bootstrap.o)
 .debug_frame   0x00001324       0x28 c:/microchip/xc32/v1.31/bin/../lib/gcc/pic32mx/4.5.2/../../../../pic32mx/lib\libpic32.a(default-general-exception-handler.o)
 .debug_frame   0x0000134c       0x20 c:/microchip/xc32/v1.31/bin/../lib/gcc/pic32mx/4.5.2/../../../../pic32mx/lib\libpic32.a(defaultinterrupt.o)
 .debug_frame   0x0000136c       0x38 c:/microchip/xc32/v1.31/bin/../lib/gcc/pic32mx/4.5.2/../../../../pic32mx/lib\libm.a(w_atan2f.o)
 .debug_frame   0x000013a4       0x28 c:/microchip/xc32/v1.31/bin/../lib/gcc/pic32mx/4.5.2/../../../../pic32mx/lib\libm.a(w_sqrtf.o)
 .debug_frame   0x000013cc       0x68 c:/microchip/xc32/v1.31/bin/../lib/gcc/pic32mx/4.5.2/../../../../pic32mx/lib\libm.a(cabs.o)
 .debug_frame   0x00001434      0x13c c:/microchip/xc32/v1.31/bin/../lib/gcc/pic32mx/4.5.2/../../../../pic32mx/lib\libm.a(support.o)
 .debug_frame   0x00001570       0x28 c:/microchip/xc32/v1.31/bin/../lib/gcc/pic32mx/4.5.2/../../../../pic32mx/lib\libm.a(w_ldexp.o)
 .debug_frame   0x00001598       0x2c c:/microchip/xc32/v1.31/bin/../lib/gcc/pic32mx/4.5.2/../../../../pic32mx/lib\libm.a(w_sqrt.o)
 .debug_frame   0x000015c4       0xa0 c:/microchip/xc32/v1.31/bin/../lib/gcc/pic32mx/4.5.2/../../../../pic32mx/lib\libpic32.a(isinf.o)
 .debug_frame   0x00001664       0x38 c:/microchip/xc32/v1.31/bin/../lib/gcc/pic32mx/4.5.2/../../../../pic32mx/lib\libc.a(itoa.o)
 .debug_frame   0x0000169c       0x20 c:/microchip/xc32/v1.31/bin/../lib/gcc/pic32mx/4.5.2/../../../../pic32mx/lib\libe.a(_unorddf2.o)
 .debug_frame   0x000016bc       0x20 c:/microchip/xc32/v1.31/bin/../lib/gcc/pic32mx/4.5.2/../../../../pic32mx/lib\software-debug-break.o

.debug_str      0x00000000     0x1558
 *(.debug_str)
 .debug_str     0x00000000      0x195 build/default/debug/src/app/app_tasks/program_planner.o
 .debug_str     0x00000195      0x1b3 build/default/debug/src/app/app_tasks/g_code.o
 .debug_str     0x00000348      0x1c2 build/default/debug/src/app/app_tasks/motion.o
 .debug_str     0x0000050a        0x0 build/default/debug/src/app/app_tasks/nuts_bolts.o
 .debug_str     0x0000050a       0x61 build/default/debug/src/app/app_tasks/settings.o
 .debug_str     0x0000056b      0x144 build/default/debug/src/app/app_tasks/eeprom.o
 .debug_str     0x000006af      0x1cb build/default/debug/src/app/app_tasks/dee_emulation_pic32.o
 .debug_str     0x0000087a      0x141 build/default/debug/src/app/app_tasks/report.o
 .debug_str     0x000009bb      0x14f build/default/debug/src/app/app_tasks/stepper.o
 .debug_str     0x00000b0a      0x14f build/default/debug/src/app/system_config/pic32_mx/system_init.o
 .debug_str     0x00000c59      0x1e1 build/default/debug/src/app/system_config/pic32_mx/system_interrupt.o
 .debug_str     0x00000e3a      0x12f build/default/debug/src/app/system_config/pic32_mx/system_task.o
 .debug_str     0x00000f69      0x12f build/default/debug/src/app/main.o
 .debug_str     0x00001098      0x175 build/default/debug/src/app/app.o
 .debug_str     0x0000120d      0x206 build/default/debug/src/bsp/cnc_rev_00/bsp_sys_init.o
 .debug_str     0x00001413      0x145 build/default/debug/src/app/app_tasks/protocol.o
 .debug_str     0x00001558        0x0 ..\..\..\..\..\..\microchip\xc32\v1.31\pic32mx\lib\libmchp_peripheral_32MX795F512L.a(open_core_timer_lib.o)
 .debug_str     0x00001558        0x0 ..\..\..\..\..\..\microchip\xc32\v1.31\pic32mx\lib\libmchp_peripheral_32MX795F512L.a(pcache.o)
 .debug_str     0x00001558        0x0 ..\..\..\..\..\..\microchip\xc32\v1.31\pic32mx\lib\libmchp_peripheral_32MX795F512L.a(int_configure_system_lib.o)
 .debug_str     0x00001558        0x0 ..\..\..\..\..\..\microchip\xc32\v1.31\pic32mx\lib\libmchp_peripheral_32MX795F512L.a(int_enable_interrupts_lib.o)
 .debug_str     0x00001558        0x0 ..\..\..\..\..\..\microchip\xc32\v1.31\pic32mx\lib\libmchp_peripheral_32MX795F512L.a(int_disable_interrupts_lib.o)
 .debug_str     0x00001558        0x0 ..\..\..\..\..\..\microchip\xc32\v1.31\pic32mx\lib\libmchp_peripheral_32MX795F512L.a(int_restore_interrupts_lib.o)
 .debug_str     0x00001558        0x0 ..\..\..\..\..\..\microchip\xc32\v1.31\pic32mx\lib\libmchp_peripheral_32MX795F512L.a(int_tbl_lib.o)
 .debug_str     0x00001558        0x0 ..\..\..\..\..\..\microchip\xc32\v1.31\pic32mx\lib\libmchp_peripheral_32MX795F512L.a(nvm_erase_page_lib.o)
 .debug_str     0x00001558        0x0 ..\..\..\..\..\..\microchip\xc32\v1.31\pic32mx\lib\libmchp_peripheral_32MX795F512L.a(nvm_operation_lib.o)
 .debug_str     0x00001558        0x0 ..\..\..\..\..\..\microchip\xc32\v1.31\pic32mx\lib\libmchp_peripheral_32MX795F512L.a(nvm_write_word_lib.o)
 .debug_str     0x00001558        0x0 ..\..\..\..\..\..\microchip\xc32\v1.31\pic32mx\lib\libmchp_peripheral_32MX795F512L.a(port_set_pins_digital_in_lib.o)
 .debug_str     0x00001558        0x0 ..\..\..\..\..\..\microchip\xc32\v1.31\pic32mx\lib\libmchp_peripheral_32MX795F512L.a(port_set_pins_digital_out_lib.o)
 .debug_str     0x00001558        0x0 ..\..\..\..\..\..\microchip\xc32\v1.31\pic32mx\lib\libmchp_peripheral_32MX795F512L.a(port_read_bits_lib.o)
 .debug_str     0x00001558        0x0 ..\..\..\..\..\..\microchip\xc32\v1.31\pic32mx\lib\libmchp_peripheral_32MX795F512L.a(port_clear_bits_lib.o)
 .debug_str     0x00001558        0x0 ..\..\..\..\..\..\microchip\xc32\v1.31\pic32mx\lib\libmchp_peripheral_32MX795F512L.a(port_set_bits_lib.o)
 .debug_str     0x00001558        0x0 ..\..\..\..\..\..\microchip\xc32\v1.31\pic32mx\lib\libmchp_peripheral_32MX795F512L.a(_ports_tbl_libp.o)
 .debug_str     0x00001558        0x0 ..\..\..\..\..\..\microchip\xc32\v1.31\pic32mx\lib\libmchp_peripheral_32MX795F512L.a(uart_lib.o)
 .debug_str     0x00001558        0x0 c:/microchip/xc32/v1.31/bin/../lib/gcc/pic32mx/4.5.2\libgcc.a(floatunsisf.o)
 .debug_str     0x00001558        0x0 c:/microchip/xc32/v1.31/bin/../lib/gcc/pic32mx/4.5.2/../../../../pic32mx/lib\libpic32.a(default-bootstrap-exception-handler.o)
 .debug_str     0x00001558        0x0 c:/microchip/xc32/v1.31/bin/../lib/gcc/pic32mx/4.5.2/../../../../pic32mx/lib\libpic32.a(default-on-reset.o)
 .debug_str     0x00001558        0x0 c:/microchip/xc32/v1.31/bin/../lib/gcc/pic32mx/4.5.2/../../../../pic32mx/lib\libpic32.a(default-on-bootstrap.o)
 .debug_str     0x00001558        0x0 c:/microchip/xc32/v1.31/bin/../lib/gcc/pic32mx/4.5.2/../../../../pic32mx/lib\libpic32.a(default-general-exception-handler.o)
 .debug_str     0x00001558        0x0 c:/microchip/xc32/v1.31/bin/../lib/gcc/pic32mx/4.5.2/../../../../pic32mx/lib\libpic32.a(defaultinterrupt.o)
 .debug_str     0x00001558        0x0 c:/microchip/xc32/v1.31/bin/../lib/gcc/pic32mx/4.5.2/../../../../pic32mx/lib\libm.a(w_atan2f.o)
 .debug_str     0x00001558        0x0 c:/microchip/xc32/v1.31/bin/../lib/gcc/pic32mx/4.5.2/../../../../pic32mx/lib\libm.a(w_sqrtf.o)
 .debug_str     0x00001558        0x0 c:/microchip/xc32/v1.31/bin/../lib/gcc/pic32mx/4.5.2/../../../../pic32mx/lib\libm.a(s_lib_ver.o)
 .debug_str     0x00001558        0x0 c:/microchip/xc32/v1.31/bin/../lib/gcc/pic32mx/4.5.2/../../../../pic32mx/lib\libm.a(cabs.o)
 .debug_str     0x00001558        0x0 c:/microchip/xc32/v1.31/bin/../lib/gcc/pic32mx/4.5.2/../../../../pic32mx/lib\libm.a(support.o)
 .debug_str     0x00001558        0x0 c:/microchip/xc32/v1.31/bin/../lib/gcc/pic32mx/4.5.2/../../../../pic32mx/lib\libm.a(w_ldexp.o)
 .debug_str     0x00001558        0x0 c:/microchip/xc32/v1.31/bin/../lib/gcc/pic32mx/4.5.2/../../../../pic32mx/lib\libm.a(w_sqrt.o)
 .debug_str     0x00001558        0x0 c:/microchip/xc32/v1.31/bin/../lib/gcc/pic32mx/4.5.2/../../../../pic32mx/lib\libpic32.a(errno.o)
 .debug_str     0x00001558        0x0 c:/microchip/xc32/v1.31/bin/../lib/gcc/pic32mx/4.5.2/../../../../pic32mx/lib\libpic32.a(isinf.o)
 .debug_str     0x00001558        0x0 c:/microchip/xc32/v1.31/bin/../lib/gcc/pic32mx/4.5.2/../../../../pic32mx/lib\libc.a(itoa.o)
 .debug_str     0x00001558        0x0 c:/microchip/xc32/v1.31/bin/../lib/gcc/pic32mx/4.5.2/../../../../pic32mx/lib\libe.a(_unorddf2.o)
 .debug_str     0x00001558        0x0 c:/microchip/xc32/v1.31/bin/../lib/gcc/pic32mx/4.5.2/../../../../pic32mx/lib\software-debug-break.o

.debug_loc      0x00000000     0x1524
 *(.debug_loc)
 .debug_loc     0x00000000      0x39e build/default/debug/src/app/app_tasks/program_planner.o
 .debug_loc     0x0000039e      0x136 build/default/debug/src/app/app_tasks/g_code.o
 .debug_loc     0x000004d4       0xb2 build/default/debug/src/app/app_tasks/motion.o
 .debug_loc     0x00000586       0x58 build/default/debug/src/app/app_tasks/nuts_bolts.o
 .debug_loc     0x000005de      0x18c build/default/debug/src/app/app_tasks/settings.o
 .debug_loc     0x0000076a       0xb0 build/default/debug/src/app/app_tasks/eeprom.o
 .debug_loc     0x0000081a      0x1ea build/default/debug/src/app/app_tasks/dee_emulation_pic32.o
 .debug_loc     0x00000a04      0x268 build/default/debug/src/app/app_tasks/report.o
 .debug_loc     0x00000c6c      0x18c build/default/debug/src/app/app_tasks/stepper.o
 .debug_loc     0x00000df8       0x2e build/default/debug/src/app/system_config/pic32_mx/system_init.o
 .debug_loc     0x00000e26      0x16e build/default/debug/src/app/system_config/pic32_mx/system_interrupt.o
 .debug_loc     0x00000f94       0x2c build/default/debug/src/app/system_config/pic32_mx/system_task.o
 .debug_loc     0x00000fc0       0x2c build/default/debug/src/app/main.o
 .debug_loc     0x00000fec       0x84 build/default/debug/src/app/app.o
 .debug_loc     0x00001070      0x370 build/default/debug/src/bsp/cnc_rev_00/bsp_sys_init.o
 .debug_loc     0x000013e0       0xdc build/default/debug/src/app/app_tasks/protocol.o
 .debug_loc     0x000014bc       0x68 c:/microchip/xc32/v1.31/bin/../lib/gcc/pic32mx/4.5.2\libgcc.a(floatunsisf.o)

.debug_macinfo
 *(.debug_macinfo)

.debug_weaknames
 *(.debug_weaknames)

.debug_funcnames
 *(.debug_funcnames)

.debug_typenames
 *(.debug_typenames)

.debug_varnames
 *(.debug_varnames)

.debug_pubtypes
                0x00000000     0x131f
 *(.debug_pubtypes)
 .debug_pubtypes
                0x00000000      0x14a build/default/debug/src/app/app_tasks/program_planner.o
 .debug_pubtypes
                0x0000014a      0x151 build/default/debug/src/app/app_tasks/g_code.o
 .debug_pubtypes
                0x0000029b      0x1d6 build/default/debug/src/app/app_tasks/motion.o
 .debug_pubtypes
                0x00000471       0x57 build/default/debug/src/app/app_tasks/nuts_bolts.o
 .debug_pubtypes
                0x000004c8       0x3e build/default/debug/src/app/app_tasks/settings.o
 .debug_pubtypes
                0x00000506       0xe7 build/default/debug/src/app/app_tasks/eeprom.o
 .debug_pubtypes
                0x000005ed       0xf9 build/default/debug/src/app/app_tasks/dee_emulation_pic32.o
 .debug_pubtypes
                0x000006e6      0x163 build/default/debug/src/app/app_tasks/report.o
 .debug_pubtypes
                0x00000849      0x1b1 build/default/debug/src/app/app_tasks/stepper.o
 .debug_pubtypes
                0x000009fa       0xfa build/default/debug/src/app/system_config/pic32_mx/system_init.o
 .debug_pubtypes
                0x00000af4      0x1aa build/default/debug/src/app/system_config/pic32_mx/system_interrupt.o
 .debug_pubtypes
                0x00000c9e       0xe7 build/default/debug/src/app/system_config/pic32_mx/system_task.o
 .debug_pubtypes
                0x00000d85      0x110 build/default/debug/src/app/main.o
 .debug_pubtypes
                0x00000e95      0x172 build/default/debug/src/app/app.o
 .debug_pubtypes
                0x00001007      0x1b6 build/default/debug/src/bsp/cnc_rev_00/bsp_sys_init.o
 .debug_pubtypes
                0x000011bd      0x12e build/default/debug/src/app/app_tasks/protocol.o
 .debug_pubtypes
                0x000012eb       0x34 c:/microchip/xc32/v1.31/bin/../lib/gcc/pic32mx/4.5.2\libgcc.a(floatunsisf.o)

.debug_ranges   0x00000000      0x180
 *(.debug_ranges)
 .debug_ranges  0x00000000       0x10 ..\..\..\..\..\..\microchip\xc32\v1.31\pic32mx\lib\libmchp_peripheral_32MX795F512L.a(open_core_timer_lib.o)
 .debug_ranges  0x00000010       0x18 ..\..\..\..\..\..\microchip\xc32\v1.31\pic32mx\lib\libmchp_peripheral_32MX795F512L.a(pcache.o)
 .debug_ranges  0x00000028       0x10 ..\..\..\..\..\..\microchip\xc32\v1.31\pic32mx\lib\libmchp_peripheral_32MX795F512L.a(int_configure_system_lib.o)
 .debug_ranges  0x00000038       0x10 ..\..\..\..\..\..\microchip\xc32\v1.31\pic32mx\lib\libmchp_peripheral_32MX795F512L.a(int_enable_interrupts_lib.o)
 .debug_ranges  0x00000048       0x10 ..\..\..\..\..\..\microchip\xc32\v1.31\pic32mx\lib\libmchp_peripheral_32MX795F512L.a(int_disable_interrupts_lib.o)
 .debug_ranges  0x00000058       0x10 ..\..\..\..\..\..\microchip\xc32\v1.31\pic32mx\lib\libmchp_peripheral_32MX795F512L.a(int_restore_interrupts_lib.o)
 .debug_ranges  0x00000068       0x50 ..\..\..\..\..\..\microchip\xc32\v1.31\pic32mx\lib\libmchp_peripheral_32MX795F512L.a(int_tbl_lib.o)
 .debug_ranges  0x000000b8       0x10 ..\..\..\..\..\..\microchip\xc32\v1.31\pic32mx\lib\libmchp_peripheral_32MX795F512L.a(nvm_erase_page_lib.o)
 .debug_ranges  0x000000c8       0x10 ..\..\..\..\..\..\microchip\xc32\v1.31\pic32mx\lib\libmchp_peripheral_32MX795F512L.a(nvm_operation_lib.o)
 .debug_ranges  0x000000d8       0x10 ..\..\..\..\..\..\microchip\xc32\v1.31\pic32mx\lib\libmchp_peripheral_32MX795F512L.a(nvm_write_word_lib.o)
 .debug_ranges  0x000000e8       0x10 ..\..\..\..\..\..\microchip\xc32\v1.31\pic32mx\lib\libmchp_peripheral_32MX795F512L.a(port_set_pins_digital_in_lib.o)
 .debug_ranges  0x000000f8       0x10 ..\..\..\..\..\..\microchip\xc32\v1.31\pic32mx\lib\libmchp_peripheral_32MX795F512L.a(port_set_pins_digital_out_lib.o)
 .debug_ranges  0x00000108       0x10 ..\..\..\..\..\..\microchip\xc32\v1.31\pic32mx\lib\libmchp_peripheral_32MX795F512L.a(port_read_bits_lib.o)
 .debug_ranges  0x00000118       0x10 ..\..\..\..\..\..\microchip\xc32\v1.31\pic32mx\lib\libmchp_peripheral_32MX795F512L.a(port_clear_bits_lib.o)
 .debug_ranges  0x00000128       0x10 ..\..\..\..\..\..\microchip\xc32\v1.31\pic32mx\lib\libmchp_peripheral_32MX795F512L.a(port_set_bits_lib.o)
 .debug_ranges  0x00000138       0x48 ..\..\..\..\..\..\microchip\xc32\v1.31\pic32mx\lib\libmchp_peripheral_32MX795F512L.a(uart_lib.o)

.gnu.attributes
                0x00000000       0x10
 *(.gnu.attributes)
 .gnu.attributes
                0x00000000       0x10 build/default/debug/src/app/app_tasks/program_planner.o
 .gnu.attributes
                0x00000010       0x10 build/default/debug/src/app/app_tasks/g_code.o
 .gnu.attributes
                0x00000020       0x10 build/default/debug/src/app/app_tasks/motion.o
 .gnu.attributes
                0x00000030       0x10 build/default/debug/src/app/app_tasks/nuts_bolts.o
 .gnu.attributes
                0x00000040       0x10 build/default/debug/src/app/app_tasks/settings.o
 .gnu.attributes
                0x00000050       0x10 build/default/debug/src/app/app_tasks/eeprom.o
 .gnu.attributes
                0x00000060       0x10 build/default/debug/src/app/app_tasks/dee_emulation_pic32.o
 .gnu.attributes
                0x00000070       0x10 build/default/debug/src/app/app_tasks/report.o
 .gnu.attributes
                0x00000080       0x10 build/default/debug/src/app/app_tasks/stepper.o
 .gnu.attributes
                0x00000090       0x10 build/default/debug/src/app/system_config/pic32_mx/system_init.o
 .gnu.attributes
                0x000000a0       0x10 build/default/debug/src/app/system_config/pic32_mx/system_interrupt.o
 .gnu.attributes
                0x000000b0       0x10 build/default/debug/src/app/system_config/pic32_mx/system_task.o
 .gnu.attributes
                0x000000c0       0x10 build/default/debug/src/app/main.o
 .gnu.attributes
                0x000000d0       0x10 build/default/debug/src/app/app.o
 .gnu.attributes
                0x000000e0       0x10 build/default/debug/src/bsp/cnc_rev_00/bsp_sys_init.o
 .gnu.attributes
                0x000000f0       0x10 build/default/debug/src/app/app_tasks/protocol.o
 .gnu.attributes
                0x00000100       0x10 ..\..\..\..\..\..\microchip\xc32\v1.31\pic32mx\lib\libmchp_peripheral_32MX795F512L.a(open_core_timer_lib.o)
 .gnu.attributes
                0x00000110       0x10 ..\..\..\..\..\..\microchip\xc32\v1.31\pic32mx\lib\libmchp_peripheral_32MX795F512L.a(pcache.o)
 .gnu.attributes
                0x00000120       0x10 ..\..\..\..\..\..\microchip\xc32\v1.31\pic32mx\lib\libmchp_peripheral_32MX795F512L.a(int_configure_system_lib.o)
 .gnu.attributes
                0x00000130       0x10 ..\..\..\..\..\..\microchip\xc32\v1.31\pic32mx\lib\libmchp_peripheral_32MX795F512L.a(int_enable_interrupts_lib.o)
 .gnu.attributes
                0x00000140       0x10 ..\..\..\..\..\..\microchip\xc32\v1.31\pic32mx\lib\libmchp_peripheral_32MX795F512L.a(int_disable_interrupts_lib.o)
 .gnu.attributes
                0x00000150       0x10 ..\..\..\..\..\..\microchip\xc32\v1.31\pic32mx\lib\libmchp_peripheral_32MX795F512L.a(int_restore_interrupts_lib.o)
 .gnu.attributes
                0x00000160       0x10 ..\..\..\..\..\..\microchip\xc32\v1.31\pic32mx\lib\libmchp_peripheral_32MX795F512L.a(int_tbl_lib.o)
 .gnu.attributes
                0x00000170       0x10 ..\..\..\..\..\..\microchip\xc32\v1.31\pic32mx\lib\libmchp_peripheral_32MX795F512L.a(nvm_erase_page_lib.o)
 .gnu.attributes
                0x00000180       0x10 ..\..\..\..\..\..\microchip\xc32\v1.31\pic32mx\lib\libmchp_peripheral_32MX795F512L.a(nvm_operation_lib.o)
 .gnu.attributes
                0x00000190       0x10 ..\..\..\..\..\..\microchip\xc32\v1.31\pic32mx\lib\libmchp_peripheral_32MX795F512L.a(nvm_write_word_lib.o)
 .gnu.attributes
                0x000001a0       0x10 ..\..\..\..\..\..\microchip\xc32\v1.31\pic32mx\lib\libmchp_peripheral_32MX795F512L.a(port_set_pins_digital_in_lib.o)
 .gnu.attributes
                0x000001b0       0x10 ..\..\..\..\..\..\microchip\xc32\v1.31\pic32mx\lib\libmchp_peripheral_32MX795F512L.a(port_set_pins_digital_out_lib.o)
 .gnu.attributes
                0x000001c0       0x10 ..\..\..\..\..\..\microchip\xc32\v1.31\pic32mx\lib\libmchp_peripheral_32MX795F512L.a(port_read_bits_lib.o)
 .gnu.attributes
                0x000001d0       0x10 ..\..\..\..\..\..\microchip\xc32\v1.31\pic32mx\lib\libmchp_peripheral_32MX795F512L.a(port_clear_bits_lib.o)
 .gnu.attributes
                0x000001e0       0x10 ..\..\..\..\..\..\microchip\xc32\v1.31\pic32mx\lib\libmchp_peripheral_32MX795F512L.a(port_set_bits_lib.o)
 .gnu.attributes
                0x000001f0       0x10 ..\..\..\..\..\..\microchip\xc32\v1.31\pic32mx\lib\libmchp_peripheral_32MX795F512L.a(_ports_tbl_libp.o)
 .gnu.attributes
                0x00000200       0x10 ..\..\..\..\..\..\microchip\xc32\v1.31\pic32mx\lib\libmchp_peripheral_32MX795F512L.a(uart_lib.o)
 .gnu.attributes
                0x00000210       0x10 c:/microchip/xc32/v1.31/bin/../lib/gcc/pic32mx/4.5.2\libgcc.a(floatunsisf.o)
 .gnu.attributes
                0x00000220       0x10 c:/microchip/xc32/v1.31/bin/../lib/gcc/pic32mx/4.5.2/../../../../pic32mx/lib\libpic32.a(default-bootstrap-exception-handler.o)
 .gnu.attributes
                0x00000230       0x10 c:/microchip/xc32/v1.31/bin/../lib/gcc/pic32mx/4.5.2/../../../../pic32mx/lib\libpic32.a(default-on-reset.o)
 .gnu.attributes
                0x00000240       0x10 c:/microchip/xc32/v1.31/bin/../lib/gcc/pic32mx/4.5.2/../../../../pic32mx/lib\libpic32.a(default-on-bootstrap.o)
 .gnu.attributes
                0x00000250       0x10 c:/microchip/xc32/v1.31/bin/../lib/gcc/pic32mx/4.5.2/../../../../pic32mx/lib\libpic32.a(default-general-exception-handler.o)
 .gnu.attributes
                0x00000260       0x10 c:/microchip/xc32/v1.31/bin/../lib/gcc/pic32mx/4.5.2/../../../../pic32mx/lib\libpic32.a(defaultinterrupt.o)
 .gnu.attributes
                0x00000270       0x10 c:/microchip/xc32/v1.31/bin/../lib/gcc/pic32mx/4.5.2/../../../../pic32mx/lib\libm.a(w_atan2f.o)
 .gnu.attributes
                0x00000280       0x10 c:/microchip/xc32/v1.31/bin/../lib/gcc/pic32mx/4.5.2/../../../../pic32mx/lib\libm.a(w_sqrtf.o)
 .gnu.attributes
                0x00000290       0x10 c:/microchip/xc32/v1.31/bin/../lib/gcc/pic32mx/4.5.2/../../../../pic32mx/lib\libm.a(s_lib_ver.o)
 .gnu.attributes
                0x000002a0       0x10 c:/microchip/xc32/v1.31/bin/../lib/gcc/pic32mx/4.5.2/../../../../pic32mx/lib\libm.a(cabs.o)
 .gnu.attributes
                0x000002b0       0x10 c:/microchip/xc32/v1.31/bin/../lib/gcc/pic32mx/4.5.2/../../../../pic32mx/lib\libm.a(support.o)
 .gnu.attributes
                0x000002c0       0x10 c:/microchip/xc32/v1.31/bin/../lib/gcc/pic32mx/4.5.2/../../../../pic32mx/lib\libm.a(w_ldexp.o)
 .gnu.attributes
                0x000002d0       0x10 c:/microchip/xc32/v1.31/bin/../lib/gcc/pic32mx/4.5.2/../../../../pic32mx/lib\libm.a(w_sqrt.o)
 .gnu.attributes
                0x000002e0       0x10 c:/microchip/xc32/v1.31/bin/../lib/gcc/pic32mx/4.5.2/../../../../pic32mx/lib\libpic32.a(errno.o)
 .gnu.attributes
                0x000002f0       0x10 c:/microchip/xc32/v1.31/bin/../lib/gcc/pic32mx/4.5.2/../../../../pic32mx/lib\libpic32.a(isinf.o)
 .gnu.attributes
                0x00000300       0x10 c:/microchip/xc32/v1.31/bin/../lib/gcc/pic32mx/4.5.2/../../../../pic32mx/lib\libc.a(itoa.o)
 .gnu.attributes
                0x00000310       0x10 c:/microchip/xc32/v1.31/bin/../lib/gcc/pic32mx/4.5.2/../../../../pic32mx/lib\libe.a(_unorddf2.o)
 .gnu.attributes
                0x00000320       0x10 c:/microchip/xc32/v1.31/bin/../lib/gcc/pic32mx/4.5.2/../../../../pic32mx/lib\software-debug-break.o
LOAD c:/microchip/xc32/v1.31/bin/../lib/gcc/pic32mx/4.5.2\libgcc.a
START GROUP
LOAD c:/microchip/xc32/v1.31/bin/../lib/gcc/pic32mx/4.5.2/../../../../pic32mx/lib\libpic32.a
LOAD c:/microchip/xc32/v1.31/bin/../lib/gcc/pic32mx/4.5.2/../../../../pic32mx/lib\libdebug.a
LOAD c:/microchip/xc32/v1.31/bin/../lib/gcc/pic32mx/4.5.2/../../../../pic32mx/lib\libm.a
LOAD c:/microchip/xc32/v1.31/bin/../lib/gcc/pic32mx/4.5.2/../../../../pic32mx/lib\libe.a
LOAD c:/microchip/xc32/v1.31/bin/../lib/gcc/pic32mx/4.5.2/../../../../pic32mx/lib\libdsp.a
LOAD c:/microchip/xc32/v1.31/bin/../lib/gcc/pic32mx/4.5.2\libgcc.a
LOAD c:/microchip/xc32/v1.31/bin/../lib/gcc/pic32mx/4.5.2/../../../../pic32mx/lib\libpic32.a
LOAD c:/microchip/xc32/v1.31/bin/../lib/gcc/pic32mx/4.5.2/../../../../pic32mx/lib\libc.a
LOAD c:/microchip/xc32/v1.31/bin/../lib/gcc/pic32mx/4.5.2/../../../../pic32mx/lib\libpic32.a
END GROUP
LOAD c:/microchip/xc32/v1.31/bin/../lib/gcc/pic32mx/4.5.2\libgcc.a
LOAD c:/microchip/xc32/v1.31/bin/../lib/gcc/pic32mx/4.5.2/../../../../pic32mx/lib\software-debug-break.o
OUTPUT(dist/default/debug/CNC.X.debug.elf elf32-tradlittlemips)
LOAD stack
LOAD data_init

.reginfo        0x00000000       0x18
 .reginfo       0x00000000       0x18 c:/microchip/xc32/v1.31/bin/../lib/gcc/pic32mx/4.5.2/../../../../pic32mx/lib/./proc/32MX795F512L/crt0_mips32r2.o

.stack          0xa0002178      0x400
 .stack         0xa0002178      0x400 stack

.bss            0xa000188c      0x694
 .bss           0xa000188c      0x694 build/default/debug/src/app/app_tasks/program_planner.o

.data           0xa0001f20      0x184
 .data          0xa0001f20      0x100 c:/microchip/xc32/v1.31/bin/../lib/gcc/pic32mx/4.5.2/../../../../pic32mx/lib\libm.a(fparc32.o)
 .data          0xa0002020       0x84 build/default/debug/src/bsp/cnc_rev_00/bsp_sys_init.o
                0xa0002020                xAxis
                0xa000204c                yAxis
                0xa0002078                zAxis

.bss            0xa00020a4       0x6c
 .bss           0xa00020a4       0x48 build/default/debug/src/app/app_tasks/protocol.o
 .bss           0xa00020ec       0x24 build/default/debug/src/app/app_tasks/stepper.o

.data           0xa0002110       0x34
 .data          0xa0002110       0x24 c:/microchip/xc32/v1.31/bin/../lib/gcc/pic32mx/4.5.2/../../../../pic32mx/lib\libm.a(sincof32.o)
                0xa0002110                _sincof
                0xa0002120                _coscof
 .data          0xa0002134       0x10 build/default/debug/src/app/app.o
                0xa0002134                stepSize

.data.math_errhandling_flag
                0xa0002144        0x4
 .data.math_errhandling_flag
                0xa0002144        0x4 c:/microchip/xc32/v1.31/bin/../lib/gcc/pic32mx/4.5.2/../../../../pic32mx/lib\libm.a(s_lib_ver.o)
                0xa0002144                math_errhandling

.bss%z1         0x00000000        0x0
 .bss           0x00000000        0x0 c:/microchip/xc32/v1.31/bin/../lib/gcc/pic32mx/4.5.2/../../../../pic32mx/lib\software-debug-break.o

.data%z2        0x00000000        0x0
 .data          0x00000000        0x0 c:/microchip/xc32/v1.31/bin/../lib/gcc/pic32mx/4.5.2/../../../../pic32mx/lib\software-debug-break.o

.bss%z3         0x00000000        0x0
 .bss           0x00000000        0x0 c:/microchip/xc32/v1.31/bin/../lib/gcc/pic32mx/4.5.2/../../../../pic32mx/lib\libe.a(_unorddf2.o)

.data%z4        0x00000000        0x0
 .data          0x00000000        0x0 c:/microchip/xc32/v1.31/bin/../lib/gcc/pic32mx/4.5.2/../../../../pic32mx/lib\libe.a(_unorddf2.o)

.bss%z5         0x00000000        0x0
 .bss           0x00000000        0x0 c:/microchip/xc32/v1.31/bin/../lib/gcc/pic32mx/4.5.2/../../../../pic32mx/lib\libc.a(itoa.o)

.data%z6        0x00000000        0x0
 .data          0x00000000        0x0 c:/microchip/xc32/v1.31/bin/../lib/gcc/pic32mx/4.5.2/../../../../pic32mx/lib\libc.a(itoa.o)

.bss%z7         0x00000000        0x0
 .bss           0x00000000        0x0 c:/microchip/xc32/v1.31/bin/../lib/gcc/pic32mx/4.5.2/../../../../pic32mx/lib\libpic32.a(isinf.o)

.data%z8        0x00000000        0x0
 .data          0x00000000        0x0 c:/microchip/xc32/v1.31/bin/../lib/gcc/pic32mx/4.5.2/../../../../pic32mx/lib\libpic32.a(isinf.o)

.bss%z9         0x00000000        0x0
 .bss           0x00000000        0x0 c:/microchip/xc32/v1.31/bin/../lib/gcc/pic32mx/4.5.2/../../../../pic32mx/lib\libpic32.a(errno.o)

.data%z10       0x00000000        0x0
 .data          0x00000000        0x0 c:/microchip/xc32/v1.31/bin/../lib/gcc/pic32mx/4.5.2/../../../../pic32mx/lib\libpic32.a(errno.o)

.bss%z11        0x00000000        0x0
 .bss           0x00000000        0x0 c:/microchip/xc32/v1.31/bin/../lib/gcc/pic32mx/4.5.2/../../../../pic32mx/lib\libm.a(sqrt32.o)

.data%z12       0x00000000        0x0
 .data          0x00000000        0x0 c:/microchip/xc32/v1.31/bin/../lib/gcc/pic32mx/4.5.2/../../../../pic32mx/lib\libm.a(sqrt32.o)

.bss%z13        0x00000000        0x0
 .bss           0x00000000        0x0 c:/microchip/xc32/v1.31/bin/../lib/gcc/pic32mx/4.5.2/../../../../pic32mx/lib\libm.a(mod32.o)

.data%z14       0x00000000        0x0
 .data          0x00000000        0x0 c:/microchip/xc32/v1.31/bin/../lib/gcc/pic32mx/4.5.2/../../../../pic32mx/lib\libm.a(mod32.o)

.bss%z15        0x00000000        0x0
 .bss           0x00000000        0x0 c:/microchip/xc32/v1.31/bin/../lib/gcc/pic32mx/4.5.2/../../../../pic32mx/lib\libm.a(w_sqrt.o)

.data%z16       0x00000000        0x0
 .data          0x00000000        0x0 c:/microchip/xc32/v1.31/bin/../lib/gcc/pic32mx/4.5.2/../../../../pic32mx/lib\libm.a(w_sqrt.o)

.bss%z17        0x00000000        0x0
 .bss           0x00000000        0x0 c:/microchip/xc32/v1.31/bin/../lib/gcc/pic32mx/4.5.2/../../../../pic32mx/lib\libm.a(w_ldexp.o)

.data%z18       0x00000000        0x0
 .data          0x00000000        0x0 c:/microchip/xc32/v1.31/bin/../lib/gcc/pic32mx/4.5.2/../../../../pic32mx/lib\libm.a(w_ldexp.o)

.bss%z19        0x00000000        0x0
 .bss           0x00000000        0x0 c:/microchip/xc32/v1.31/bin/../lib/gcc/pic32mx/4.5.2/../../../../pic32mx/lib\libm.a(support.o)

.data%z20       0x00000000        0x0
 .data          0x00000000        0x0 c:/microchip/xc32/v1.31/bin/../lib/gcc/pic32mx/4.5.2/../../../../pic32mx/lib\libm.a(support.o)

.bss%z21        0x00000000        0x0
 .bss           0x00000000        0x0 c:/microchip/xc32/v1.31/bin/../lib/gcc/pic32mx/4.5.2/../../../../pic32mx/lib\libm.a(cabs.o)

.data%z22       0x00000000        0x0
 .data          0x00000000        0x0 c:/microchip/xc32/v1.31/bin/../lib/gcc/pic32mx/4.5.2/../../../../pic32mx/lib\libm.a(cabs.o)

.bss%z23        0x00000000        0x0
 .bss           0x00000000        0x0 c:/microchip/xc32/v1.31/bin/../lib/gcc/pic32mx/4.5.2/../../../../pic32mx/lib\libm.a(s_lib_ver.o)

.data%z24       0x00000000        0x0
 .data          0x00000000        0x0 c:/microchip/xc32/v1.31/bin/../lib/gcc/pic32mx/4.5.2/../../../../pic32mx/lib\libm.a(s_lib_ver.o)

.bss%z25        0x00000000        0x0
 .bss           0x00000000        0x0 c:/microchip/xc32/v1.31/bin/../lib/gcc/pic32mx/4.5.2/../../../../pic32mx/lib\libm.a(sincof32.o)

.bss%z26        0x00000000        0x0
 .bss           0x00000000        0x0 c:/microchip/xc32/v1.31/bin/../lib/gcc/pic32mx/4.5.2/../../../../pic32mx/lib\libm.a(fpreduct32.o)

.data%z27       0x00000000        0x0
 .data          0x00000000        0x0 c:/microchip/xc32/v1.31/bin/../lib/gcc/pic32mx/4.5.2/../../../../pic32mx/lib\libm.a(fpreduct32.o)

.bss%z28        0x00000000        0x0
 .bss           0x00000000        0x0 c:/microchip/xc32/v1.31/bin/../lib/gcc/pic32mx/4.5.2/../../../../pic32mx/lib\libm.a(fpsin32.o)

.data%z29       0x00000000        0x0
 .data          0x00000000        0x0 c:/microchip/xc32/v1.31/bin/../lib/gcc/pic32mx/4.5.2/../../../../pic32mx/lib\libm.a(fpsin32.o)

.bss%z30        0x00000000        0x0
 .bss           0x00000000        0x0 c:/microchip/xc32/v1.31/bin/../lib/gcc/pic32mx/4.5.2/../../../../pic32mx/lib\libm.a(fpcos32.o)

.data%z31       0x00000000        0x0
 .data          0x00000000        0x0 c:/microchip/xc32/v1.31/bin/../lib/gcc/pic32mx/4.5.2/../../../../pic32mx/lib\libm.a(fpcos32.o)

.bss%z32        0x00000000        0x0
 .bss           0x00000000        0x0 c:/microchip/xc32/v1.31/bin/../lib/gcc/pic32mx/4.5.2/../../../../pic32mx/lib\libm.a(fp32.o)

.data%z33       0x00000000        0x0
 .data          0x00000000        0x0 c:/microchip/xc32/v1.31/bin/../lib/gcc/pic32mx/4.5.2/../../../../pic32mx/lib\libm.a(fp32.o)

.bss%z34        0x00000000        0x0
 .bss           0x00000000        0x0 c:/microchip/xc32/v1.31/bin/../lib/gcc/pic32mx/4.5.2/../../../../pic32mx/lib\libm.a(w_sqrtf.o)

.data%z35       0x00000000        0x0
 .data          0x00000000        0x0 c:/microchip/xc32/v1.31/bin/../lib/gcc/pic32mx/4.5.2/../../../../pic32mx/lib\libm.a(w_sqrtf.o)

.bss%z36        0x00000000        0x0
 .bss           0x00000000        0x0 c:/microchip/xc32/v1.31/bin/../lib/gcc/pic32mx/4.5.2/../../../../pic32mx/lib\libm.a(fpsqrt32.o)

.data%z37       0x00000000        0x0
 .data          0x00000000        0x0 c:/microchip/xc32/v1.31/bin/../lib/gcc/pic32mx/4.5.2/../../../../pic32mx/lib\libm.a(fpsqrt32.o)

.bss%z38        0x00000000        0x0
 .bss           0x00000000        0x0 c:/microchip/xc32/v1.31/bin/../lib/gcc/pic32mx/4.5.2/../../../../pic32mx/lib\libm.a(dp32.o)

.data%z39       0x00000000        0x0
 .data          0x00000000        0x0 c:/microchip/xc32/v1.31/bin/../lib/gcc/pic32mx/4.5.2/../../../../pic32mx/lib\libm.a(dp32.o)

.bss%z40        0x00000000        0x0
 .bss           0x00000000        0x0 c:/microchip/xc32/v1.31/bin/../lib/gcc/pic32mx/4.5.2/../../../../pic32mx/lib\libm.a(fpceil32.o)

.data%z41       0x00000000        0x0
 .data          0x00000000        0x0 c:/microchip/xc32/v1.31/bin/../lib/gcc/pic32mx/4.5.2/../../../../pic32mx/lib\libm.a(fpceil32.o)

.bss%z42        0x00000000        0x0
 .bss           0x00000000        0x0 c:/microchip/xc32/v1.31/bin/../lib/gcc/pic32mx/4.5.2/../../../../pic32mx/lib\libm.a(fpfloo32.o)

.data%z43       0x00000000        0x0
 .data          0x00000000        0x0 c:/microchip/xc32/v1.31/bin/../lib/gcc/pic32mx/4.5.2/../../../../pic32mx/lib\libm.a(fpfloo32.o)

.bss%z44        0x00000000        0x0
 .bss           0x00000000        0x0 c:/microchip/xc32/v1.31/bin/../lib/gcc/pic32mx/4.5.2/../../../../pic32mx/lib\libm.a(fparc32.o)

.bss%z45        0x00000000        0x0
 .bss           0x00000000        0x0 c:/microchip/xc32/v1.31/bin/../lib/gcc/pic32mx/4.5.2/../../../../pic32mx/lib\libm.a(w_atan2f.o)

.data%z46       0x00000000        0x0
 .data          0x00000000        0x0 c:/microchip/xc32/v1.31/bin/../lib/gcc/pic32mx/4.5.2/../../../../pic32mx/lib\libm.a(w_atan2f.o)

.bss%z47        0x00000000        0x0
 .bss           0x00000000        0x0 c:/microchip/xc32/v1.31/bin/../lib/gcc/pic32mx/4.5.2/../../../../pic32mx/lib\libpic32.a(defaultinterrupt.o)

.data%z48       0x00000000        0x0
 .data          0x00000000        0x0 c:/microchip/xc32/v1.31/bin/../lib/gcc/pic32mx/4.5.2/../../../../pic32mx/lib\libpic32.a(defaultinterrupt.o)

.bss%z49        0x00000000        0x0
 .bss           0x00000000        0x0 c:/microchip/xc32/v1.31/bin/../lib/gcc/pic32mx/4.5.2/../../../../pic32mx/lib\libpic32.a(default-general-exception-handler.o)

.data%z50       0x00000000        0x0
 .data          0x00000000        0x0 c:/microchip/xc32/v1.31/bin/../lib/gcc/pic32mx/4.5.2/../../../../pic32mx/lib\libpic32.a(default-general-exception-handler.o)

.bss%z51        0x00000000        0x0
 .bss           0x00000000        0x0 c:/microchip/xc32/v1.31/bin/../lib/gcc/pic32mx/4.5.2/../../../../pic32mx/lib\libpic32.a(vector63.o)

.data%z52       0x00000000        0x0
 .data          0x00000000        0x0 c:/microchip/xc32/v1.31/bin/../lib/gcc/pic32mx/4.5.2/../../../../pic32mx/lib\libpic32.a(vector63.o)

.bss%z53        0x00000000        0x0
 .bss           0x00000000        0x0 c:/microchip/xc32/v1.31/bin/../lib/gcc/pic32mx/4.5.2/../../../../pic32mx/lib\libpic32.a(vector62.o)

.data%z54       0x00000000        0x0
 .data          0x00000000        0x0 c:/microchip/xc32/v1.31/bin/../lib/gcc/pic32mx/4.5.2/../../../../pic32mx/lib\libpic32.a(vector62.o)

.bss%z55        0x00000000        0x0
 .bss           0x00000000        0x0 c:/microchip/xc32/v1.31/bin/../lib/gcc/pic32mx/4.5.2/../../../../pic32mx/lib\libpic32.a(vector61.o)

.data%z56       0x00000000        0x0
 .data          0x00000000        0x0 c:/microchip/xc32/v1.31/bin/../lib/gcc/pic32mx/4.5.2/../../../../pic32mx/lib\libpic32.a(vector61.o)

.bss%z57        0x00000000        0x0
 .bss           0x00000000        0x0 c:/microchip/xc32/v1.31/bin/../lib/gcc/pic32mx/4.5.2/../../../../pic32mx/lib\libpic32.a(vector60.o)

.data%z58       0x00000000        0x0
 .data          0x00000000        0x0 c:/microchip/xc32/v1.31/bin/../lib/gcc/pic32mx/4.5.2/../../../../pic32mx/lib\libpic32.a(vector60.o)

.bss%z59        0x00000000        0x0
 .bss           0x00000000        0x0 c:/microchip/xc32/v1.31/bin/../lib/gcc/pic32mx/4.5.2/../../../../pic32mx/lib\libpic32.a(vector59.o)

.data%z60       0x00000000        0x0
 .data          0x00000000        0x0 c:/microchip/xc32/v1.31/bin/../lib/gcc/pic32mx/4.5.2/../../../../pic32mx/lib\libpic32.a(vector59.o)

.bss%z61        0x00000000        0x0
 .bss           0x00000000        0x0 c:/microchip/xc32/v1.31/bin/../lib/gcc/pic32mx/4.5.2/../../../../pic32mx/lib\libpic32.a(vector58.o)

.data%z62       0x00000000        0x0
 .data          0x00000000        0x0 c:/microchip/xc32/v1.31/bin/../lib/gcc/pic32mx/4.5.2/../../../../pic32mx/lib\libpic32.a(vector58.o)

.bss%z63        0x00000000        0x0
 .bss           0x00000000        0x0 c:/microchip/xc32/v1.31/bin/../lib/gcc/pic32mx/4.5.2/../../../../pic32mx/lib\libpic32.a(vector57.o)

.data%z64       0x00000000        0x0
 .data          0x00000000        0x0 c:/microchip/xc32/v1.31/bin/../lib/gcc/pic32mx/4.5.2/../../../../pic32mx/lib\libpic32.a(vector57.o)

.bss%z65        0x00000000        0x0
 .bss           0x00000000        0x0 c:/microchip/xc32/v1.31/bin/../lib/gcc/pic32mx/4.5.2/../../../../pic32mx/lib\libpic32.a(vector56.o)

.data%z66       0x00000000        0x0
 .data          0x00000000        0x0 c:/microchip/xc32/v1.31/bin/../lib/gcc/pic32mx/4.5.2/../../../../pic32mx/lib\libpic32.a(vector56.o)

.bss%z67        0x00000000        0x0
 .bss           0x00000000        0x0 c:/microchip/xc32/v1.31/bin/../lib/gcc/pic32mx/4.5.2/../../../../pic32mx/lib\libpic32.a(vector55.o)

.data%z68       0x00000000        0x0
 .data          0x00000000        0x0 c:/microchip/xc32/v1.31/bin/../lib/gcc/pic32mx/4.5.2/../../../../pic32mx/lib\libpic32.a(vector55.o)

.bss%z69        0x00000000        0x0
 .bss           0x00000000        0x0 c:/microchip/xc32/v1.31/bin/../lib/gcc/pic32mx/4.5.2/../../../../pic32mx/lib\libpic32.a(vector54.o)

.data%z70       0x00000000        0x0
 .data          0x00000000        0x0 c:/microchip/xc32/v1.31/bin/../lib/gcc/pic32mx/4.5.2/../../../../pic32mx/lib\libpic32.a(vector54.o)

.bss%z71        0x00000000        0x0
 .bss           0x00000000        0x0 c:/microchip/xc32/v1.31/bin/../lib/gcc/pic32mx/4.5.2/../../../../pic32mx/lib\libpic32.a(vector53.o)

.data%z72       0x00000000        0x0
 .data          0x00000000        0x0 c:/microchip/xc32/v1.31/bin/../lib/gcc/pic32mx/4.5.2/../../../../pic32mx/lib\libpic32.a(vector53.o)

.bss%z73        0x00000000        0x0
 .bss           0x00000000        0x0 c:/microchip/xc32/v1.31/bin/../lib/gcc/pic32mx/4.5.2/../../../../pic32mx/lib\libpic32.a(vector52.o)

.data%z74       0x00000000        0x0
 .data          0x00000000        0x0 c:/microchip/xc32/v1.31/bin/../lib/gcc/pic32mx/4.5.2/../../../../pic32mx/lib\libpic32.a(vector52.o)

.bss%z75        0x00000000        0x0
 .bss           0x00000000        0x0 c:/microchip/xc32/v1.31/bin/../lib/gcc/pic32mx/4.5.2/../../../../pic32mx/lib\libpic32.a(vector51.o)

.data%z76       0x00000000        0x0
 .data          0x00000000        0x0 c:/microchip/xc32/v1.31/bin/../lib/gcc/pic32mx/4.5.2/../../../../pic32mx/lib\libpic32.a(vector51.o)

.bss%z77        0x00000000        0x0
 .bss           0x00000000        0x0 c:/microchip/xc32/v1.31/bin/../lib/gcc/pic32mx/4.5.2/../../../../pic32mx/lib\libpic32.a(vector50.o)

.data%z78       0x00000000        0x0
 .data          0x00000000        0x0 c:/microchip/xc32/v1.31/bin/../lib/gcc/pic32mx/4.5.2/../../../../pic32mx/lib\libpic32.a(vector50.o)

.bss%z79        0x00000000        0x0
 .bss           0x00000000        0x0 c:/microchip/xc32/v1.31/bin/../lib/gcc/pic32mx/4.5.2/../../../../pic32mx/lib\libpic32.a(vector49.o)

.data%z80       0x00000000        0x0
 .data          0x00000000        0x0 c:/microchip/xc32/v1.31/bin/../lib/gcc/pic32mx/4.5.2/../../../../pic32mx/lib\libpic32.a(vector49.o)

.bss%z81        0x00000000        0x0
 .bss           0x00000000        0x0 c:/microchip/xc32/v1.31/bin/../lib/gcc/pic32mx/4.5.2/../../../../pic32mx/lib\libpic32.a(vector48.o)

.data%z82       0x00000000        0x0
 .data          0x00000000        0x0 c:/microchip/xc32/v1.31/bin/../lib/gcc/pic32mx/4.5.2/../../../../pic32mx/lib\libpic32.a(vector48.o)

.bss%z83        0x00000000        0x0
 .bss           0x00000000        0x0 c:/microchip/xc32/v1.31/bin/../lib/gcc/pic32mx/4.5.2/../../../../pic32mx/lib\libpic32.a(vector47.o)

.data%z84       0x00000000        0x0
 .data          0x00000000        0x0 c:/microchip/xc32/v1.31/bin/../lib/gcc/pic32mx/4.5.2/../../../../pic32mx/lib\libpic32.a(vector47.o)

.bss%z85        0x00000000        0x0
 .bss           0x00000000        0x0 c:/microchip/xc32/v1.31/bin/../lib/gcc/pic32mx/4.5.2/../../../../pic32mx/lib\libpic32.a(vector46.o)

.data%z86       0x00000000        0x0
 .data          0x00000000        0x0 c:/microchip/xc32/v1.31/bin/../lib/gcc/pic32mx/4.5.2/../../../../pic32mx/lib\libpic32.a(vector46.o)

.bss%z87        0x00000000        0x0
 .bss           0x00000000        0x0 c:/microchip/xc32/v1.31/bin/../lib/gcc/pic32mx/4.5.2/../../../../pic32mx/lib\libpic32.a(vector45.o)

.data%z88       0x00000000        0x0
 .data          0x00000000        0x0 c:/microchip/xc32/v1.31/bin/../lib/gcc/pic32mx/4.5.2/../../../../pic32mx/lib\libpic32.a(vector45.o)

.bss%z89        0x00000000        0x0
 .bss           0x00000000        0x0 c:/microchip/xc32/v1.31/bin/../lib/gcc/pic32mx/4.5.2/../../../../pic32mx/lib\libpic32.a(vector44.o)

.data%z90       0x00000000        0x0
 .data          0x00000000        0x0 c:/microchip/xc32/v1.31/bin/../lib/gcc/pic32mx/4.5.2/../../../../pic32mx/lib\libpic32.a(vector44.o)

.bss%z91        0x00000000        0x0
 .bss           0x00000000        0x0 c:/microchip/xc32/v1.31/bin/../lib/gcc/pic32mx/4.5.2/../../../../pic32mx/lib\libpic32.a(vector43.o)

.data%z92       0x00000000        0x0
 .data          0x00000000        0x0 c:/microchip/xc32/v1.31/bin/../lib/gcc/pic32mx/4.5.2/../../../../pic32mx/lib\libpic32.a(vector43.o)

.bss%z93        0x00000000        0x0
 .bss           0x00000000        0x0 c:/microchip/xc32/v1.31/bin/../lib/gcc/pic32mx/4.5.2/../../../../pic32mx/lib\libpic32.a(vector42.o)

.data%z94       0x00000000        0x0
 .data          0x00000000        0x0 c:/microchip/xc32/v1.31/bin/../lib/gcc/pic32mx/4.5.2/../../../../pic32mx/lib\libpic32.a(vector42.o)

.bss%z95        0x00000000        0x0
 .bss           0x00000000        0x0 c:/microchip/xc32/v1.31/bin/../lib/gcc/pic32mx/4.5.2/../../../../pic32mx/lib\libpic32.a(vector41.o)

.data%z96       0x00000000        0x0
 .data          0x00000000        0x0 c:/microchip/xc32/v1.31/bin/../lib/gcc/pic32mx/4.5.2/../../../../pic32mx/lib\libpic32.a(vector41.o)

.bss%z97        0x00000000        0x0
 .bss           0x00000000        0x0 c:/microchip/xc32/v1.31/bin/../lib/gcc/pic32mx/4.5.2/../../../../pic32mx/lib\libpic32.a(vector40.o)

.data%z98       0x00000000        0x0
 .data          0x00000000        0x0 c:/microchip/xc32/v1.31/bin/../lib/gcc/pic32mx/4.5.2/../../../../pic32mx/lib\libpic32.a(vector40.o)

.bss%z99        0x00000000        0x0
 .bss           0x00000000        0x0 c:/microchip/xc32/v1.31/bin/../lib/gcc/pic32mx/4.5.2/../../../../pic32mx/lib\libpic32.a(vector39.o)

.data%z100      0x00000000        0x0
 .data          0x00000000        0x0 c:/microchip/xc32/v1.31/bin/../lib/gcc/pic32mx/4.5.2/../../../../pic32mx/lib\libpic32.a(vector39.o)

.bss%z101       0x00000000        0x0
 .bss           0x00000000        0x0 c:/microchip/xc32/v1.31/bin/../lib/gcc/pic32mx/4.5.2/../../../../pic32mx/lib\libpic32.a(vector38.o)

.data%z102      0x00000000        0x0
 .data          0x00000000        0x0 c:/microchip/xc32/v1.31/bin/../lib/gcc/pic32mx/4.5.2/../../../../pic32mx/lib\libpic32.a(vector38.o)

.bss%z103       0x00000000        0x0
 .bss           0x00000000        0x0 c:/microchip/xc32/v1.31/bin/../lib/gcc/pic32mx/4.5.2/../../../../pic32mx/lib\libpic32.a(vector37.o)

.data%z104      0x00000000        0x0
 .data          0x00000000        0x0 c:/microchip/xc32/v1.31/bin/../lib/gcc/pic32mx/4.5.2/../../../../pic32mx/lib\libpic32.a(vector37.o)

.bss%z105       0x00000000        0x0
 .bss           0x00000000        0x0 c:/microchip/xc32/v1.31/bin/../lib/gcc/pic32mx/4.5.2/../../../../pic32mx/lib\libpic32.a(vector36.o)

.data%z106      0x00000000        0x0
 .data          0x00000000        0x0 c:/microchip/xc32/v1.31/bin/../lib/gcc/pic32mx/4.5.2/../../../../pic32mx/lib\libpic32.a(vector36.o)

.bss%z107       0x00000000        0x0
 .bss           0x00000000        0x0 c:/microchip/xc32/v1.31/bin/../lib/gcc/pic32mx/4.5.2/../../../../pic32mx/lib\libpic32.a(vector35.o)

.data%z108      0x00000000        0x0
 .data          0x00000000        0x0 c:/microchip/xc32/v1.31/bin/../lib/gcc/pic32mx/4.5.2/../../../../pic32mx/lib\libpic32.a(vector35.o)

.bss%z109       0x00000000        0x0
 .bss           0x00000000        0x0 c:/microchip/xc32/v1.31/bin/../lib/gcc/pic32mx/4.5.2/../../../../pic32mx/lib\libpic32.a(vector34.o)

.data%z110      0x00000000        0x0
 .data          0x00000000        0x0 c:/microchip/xc32/v1.31/bin/../lib/gcc/pic32mx/4.5.2/../../../../pic32mx/lib\libpic32.a(vector34.o)

.bss%z111       0x00000000        0x0
 .bss           0x00000000        0x0 c:/microchip/xc32/v1.31/bin/../lib/gcc/pic32mx/4.5.2/../../../../pic32mx/lib\libpic32.a(vector33.o)

.data%z112      0x00000000        0x0
 .data          0x00000000        0x0 c:/microchip/xc32/v1.31/bin/../lib/gcc/pic32mx/4.5.2/../../../../pic32mx/lib\libpic32.a(vector33.o)

.bss%z113       0x00000000        0x0
 .bss           0x00000000        0x0 c:/microchip/xc32/v1.31/bin/../lib/gcc/pic32mx/4.5.2/../../../../pic32mx/lib\libpic32.a(vector31.o)

.data%z114      0x00000000        0x0
 .data          0x00000000        0x0 c:/microchip/xc32/v1.31/bin/../lib/gcc/pic32mx/4.5.2/../../../../pic32mx/lib\libpic32.a(vector31.o)

.bss%z115       0x00000000        0x0
 .bss           0x00000000        0x0 c:/microchip/xc32/v1.31/bin/../lib/gcc/pic32mx/4.5.2/../../../../pic32mx/lib\libpic32.a(vector30.o)

.data%z116      0x00000000        0x0
 .data          0x00000000        0x0 c:/microchip/xc32/v1.31/bin/../lib/gcc/pic32mx/4.5.2/../../../../pic32mx/lib\libpic32.a(vector30.o)

.bss%z117       0x00000000        0x0
 .bss           0x00000000        0x0 c:/microchip/xc32/v1.31/bin/../lib/gcc/pic32mx/4.5.2/../../../../pic32mx/lib\libpic32.a(vector29.o)

.data%z118      0x00000000        0x0
 .data          0x00000000        0x0 c:/microchip/xc32/v1.31/bin/../lib/gcc/pic32mx/4.5.2/../../../../pic32mx/lib\libpic32.a(vector29.o)

.bss%z119       0x00000000        0x0
 .bss           0x00000000        0x0 c:/microchip/xc32/v1.31/bin/../lib/gcc/pic32mx/4.5.2/../../../../pic32mx/lib\libpic32.a(vector28.o)

.data%z120      0x00000000        0x0
 .data          0x00000000        0x0 c:/microchip/xc32/v1.31/bin/../lib/gcc/pic32mx/4.5.2/../../../../pic32mx/lib\libpic32.a(vector28.o)

.bss%z121       0x00000000        0x0
 .bss           0x00000000        0x0 c:/microchip/xc32/v1.31/bin/../lib/gcc/pic32mx/4.5.2/../../../../pic32mx/lib\libpic32.a(vector27.o)

.data%z122      0x00000000        0x0
 .data          0x00000000        0x0 c:/microchip/xc32/v1.31/bin/../lib/gcc/pic32mx/4.5.2/../../../../pic32mx/lib\libpic32.a(vector27.o)

.bss%z123       0x00000000        0x0
 .bss           0x00000000        0x0 c:/microchip/xc32/v1.31/bin/../lib/gcc/pic32mx/4.5.2/../../../../pic32mx/lib\libpic32.a(vector26.o)

.data%z124      0x00000000        0x0
 .data          0x00000000        0x0 c:/microchip/xc32/v1.31/bin/../lib/gcc/pic32mx/4.5.2/../../../../pic32mx/lib\libpic32.a(vector26.o)

.bss%z125       0x00000000        0x0
 .bss           0x00000000        0x0 c:/microchip/xc32/v1.31/bin/../lib/gcc/pic32mx/4.5.2/../../../../pic32mx/lib\libpic32.a(vector25.o)

.data%z126      0x00000000        0x0
 .data          0x00000000        0x0 c:/microchip/xc32/v1.31/bin/../lib/gcc/pic32mx/4.5.2/../../../../pic32mx/lib\libpic32.a(vector25.o)

.bss%z127       0x00000000        0x0
 .bss           0x00000000        0x0 c:/microchip/xc32/v1.31/bin/../lib/gcc/pic32mx/4.5.2/../../../../pic32mx/lib\libpic32.a(vector24.o)

.data%z128      0x00000000        0x0
 .data          0x00000000        0x0 c:/microchip/xc32/v1.31/bin/../lib/gcc/pic32mx/4.5.2/../../../../pic32mx/lib\libpic32.a(vector24.o)

.bss%z129       0x00000000        0x0
 .bss           0x00000000        0x0 c:/microchip/xc32/v1.31/bin/../lib/gcc/pic32mx/4.5.2/../../../../pic32mx/lib\libpic32.a(vector23.o)

.data%z130      0x00000000        0x0
 .data          0x00000000        0x0 c:/microchip/xc32/v1.31/bin/../lib/gcc/pic32mx/4.5.2/../../../../pic32mx/lib\libpic32.a(vector23.o)

.bss%z131       0x00000000        0x0
 .bss           0x00000000        0x0 c:/microchip/xc32/v1.31/bin/../lib/gcc/pic32mx/4.5.2/../../../../pic32mx/lib\libpic32.a(vector22.o)

.data%z132      0x00000000        0x0
 .data          0x00000000        0x0 c:/microchip/xc32/v1.31/bin/../lib/gcc/pic32mx/4.5.2/../../../../pic32mx/lib\libpic32.a(vector22.o)

.bss%z133       0x00000000        0x0
 .bss           0x00000000        0x0 c:/microchip/xc32/v1.31/bin/../lib/gcc/pic32mx/4.5.2/../../../../pic32mx/lib\libpic32.a(vector21.o)

.data%z134      0x00000000        0x0
 .data          0x00000000        0x0 c:/microchip/xc32/v1.31/bin/../lib/gcc/pic32mx/4.5.2/../../../../pic32mx/lib\libpic32.a(vector21.o)

.bss%z135       0x00000000        0x0
 .bss           0x00000000        0x0 c:/microchip/xc32/v1.31/bin/../lib/gcc/pic32mx/4.5.2/../../../../pic32mx/lib\libpic32.a(vector20.o)

.data%z136      0x00000000        0x0
 .data          0x00000000        0x0 c:/microchip/xc32/v1.31/bin/../lib/gcc/pic32mx/4.5.2/../../../../pic32mx/lib\libpic32.a(vector20.o)

.bss%z137       0x00000000        0x0
 .bss           0x00000000        0x0 c:/microchip/xc32/v1.31/bin/../lib/gcc/pic32mx/4.5.2/../../../../pic32mx/lib\libpic32.a(vector19.o)

.data%z138      0x00000000        0x0
 .data          0x00000000        0x0 c:/microchip/xc32/v1.31/bin/../lib/gcc/pic32mx/4.5.2/../../../../pic32mx/lib\libpic32.a(vector19.o)

.bss%z139       0x00000000        0x0
 .bss           0x00000000        0x0 c:/microchip/xc32/v1.31/bin/../lib/gcc/pic32mx/4.5.2/../../../../pic32mx/lib\libpic32.a(vector18.o)

.data%z140      0x00000000        0x0
 .data          0x00000000        0x0 c:/microchip/xc32/v1.31/bin/../lib/gcc/pic32mx/4.5.2/../../../../pic32mx/lib\libpic32.a(vector18.o)

.bss%z141       0x00000000        0x0
 .bss           0x00000000        0x0 c:/microchip/xc32/v1.31/bin/../lib/gcc/pic32mx/4.5.2/../../../../pic32mx/lib\libpic32.a(vector17.o)

.data%z142      0x00000000        0x0
 .data          0x00000000        0x0 c:/microchip/xc32/v1.31/bin/../lib/gcc/pic32mx/4.5.2/../../../../pic32mx/lib\libpic32.a(vector17.o)

.bss%z143       0x00000000        0x0
 .bss           0x00000000        0x0 c:/microchip/xc32/v1.31/bin/../lib/gcc/pic32mx/4.5.2/../../../../pic32mx/lib\libpic32.a(vector15.o)

.data%z144      0x00000000        0x0
 .data          0x00000000        0x0 c:/microchip/xc32/v1.31/bin/../lib/gcc/pic32mx/4.5.2/../../../../pic32mx/lib\libpic32.a(vector15.o)

.bss%z145       0x00000000        0x0
 .bss           0x00000000        0x0 c:/microchip/xc32/v1.31/bin/../lib/gcc/pic32mx/4.5.2/../../../../pic32mx/lib\libpic32.a(vector14.o)

.data%z146      0x00000000        0x0
 .data          0x00000000        0x0 c:/microchip/xc32/v1.31/bin/../lib/gcc/pic32mx/4.5.2/../../../../pic32mx/lib\libpic32.a(vector14.o)

.bss%z147       0x00000000        0x0
 .bss           0x00000000        0x0 c:/microchip/xc32/v1.31/bin/../lib/gcc/pic32mx/4.5.2/../../../../pic32mx/lib\libpic32.a(vector13.o)

.data%z148      0x00000000        0x0
 .data          0x00000000        0x0 c:/microchip/xc32/v1.31/bin/../lib/gcc/pic32mx/4.5.2/../../../../pic32mx/lib\libpic32.a(vector13.o)

.bss%z149       0x00000000        0x0
 .bss           0x00000000        0x0 c:/microchip/xc32/v1.31/bin/../lib/gcc/pic32mx/4.5.2/../../../../pic32mx/lib\libpic32.a(vector10.o)

.data%z150      0x00000000        0x0
 .data          0x00000000        0x0 c:/microchip/xc32/v1.31/bin/../lib/gcc/pic32mx/4.5.2/../../../../pic32mx/lib\libpic32.a(vector10.o)

.bss%z151       0x00000000        0x0
 .bss           0x00000000        0x0 c:/microchip/xc32/v1.31/bin/../lib/gcc/pic32mx/4.5.2/../../../../pic32mx/lib\libpic32.a(vector9.o)

.data%z152      0x00000000        0x0
 .data          0x00000000        0x0 c:/microchip/xc32/v1.31/bin/../lib/gcc/pic32mx/4.5.2/../../../../pic32mx/lib\libpic32.a(vector9.o)

.bss%z153       0x00000000        0x0
 .bss           0x00000000        0x0 c:/microchip/xc32/v1.31/bin/../lib/gcc/pic32mx/4.5.2/../../../../pic32mx/lib\libpic32.a(vector6.o)

.data%z154      0x00000000        0x0
 .data          0x00000000        0x0 c:/microchip/xc32/v1.31/bin/../lib/gcc/pic32mx/4.5.2/../../../../pic32mx/lib\libpic32.a(vector6.o)

.bss%z155       0x00000000        0x0
 .bss           0x00000000        0x0 c:/microchip/xc32/v1.31/bin/../lib/gcc/pic32mx/4.5.2/../../../../pic32mx/lib\libpic32.a(vector5.o)

.data%z156      0x00000000        0x0
 .data          0x00000000        0x0 c:/microchip/xc32/v1.31/bin/../lib/gcc/pic32mx/4.5.2/../../../../pic32mx/lib\libpic32.a(vector5.o)

.bss%z157       0x00000000        0x0
 .bss           0x00000000        0x0 c:/microchip/xc32/v1.31/bin/../lib/gcc/pic32mx/4.5.2/../../../../pic32mx/lib\libpic32.a(vector3.o)

.data%z158      0x00000000        0x0
 .data          0x00000000        0x0 c:/microchip/xc32/v1.31/bin/../lib/gcc/pic32mx/4.5.2/../../../../pic32mx/lib\libpic32.a(vector3.o)

.bss%z159       0x00000000        0x0
 .bss           0x00000000        0x0 c:/microchip/xc32/v1.31/bin/../lib/gcc/pic32mx/4.5.2/../../../../pic32mx/lib\libpic32.a(vector2.o)

.data%z160      0x00000000        0x0
 .data          0x00000000        0x0 c:/microchip/xc32/v1.31/bin/../lib/gcc/pic32mx/4.5.2/../../../../pic32mx/lib\libpic32.a(vector2.o)

.bss%z161       0x00000000        0x0
 .bss           0x00000000        0x0 c:/microchip/xc32/v1.31/bin/../lib/gcc/pic32mx/4.5.2/../../../../pic32mx/lib\libpic32.a(vector1.o)

.data%z162      0x00000000        0x0
 .data          0x00000000        0x0 c:/microchip/xc32/v1.31/bin/../lib/gcc/pic32mx/4.5.2/../../../../pic32mx/lib\libpic32.a(vector1.o)

.bss%z163       0x00000000        0x0
 .bss           0x00000000        0x0 c:/microchip/xc32/v1.31/bin/../lib/gcc/pic32mx/4.5.2/../../../../pic32mx/lib\libpic32.a(general-exception.o)

.data%z164      0x00000000        0x0
 .data          0x00000000        0x0 c:/microchip/xc32/v1.31/bin/../lib/gcc/pic32mx/4.5.2/../../../../pic32mx/lib\libpic32.a(general-exception.o)

.bss%z165       0x00000000        0x0
 .bss           0x00000000        0x0 c:/microchip/xc32/v1.31/bin/../lib/gcc/pic32mx/4.5.2/../../../../pic32mx/lib\libpic32.a(pic32_software_reset.o)

.data%z166      0x00000000        0x0
 .data          0x00000000        0x0 c:/microchip/xc32/v1.31/bin/../lib/gcc/pic32mx/4.5.2/../../../../pic32mx/lib\libpic32.a(pic32_software_reset.o)

.bss%z167       0x00000000        0x0
 .bss           0x00000000        0x0 c:/microchip/xc32/v1.31/bin/../lib/gcc/pic32mx/4.5.2/../../../../pic32mx/lib\libpic32.a(default-nmi-handler.o)

.data%z168      0x00000000        0x0
 .data          0x00000000        0x0 c:/microchip/xc32/v1.31/bin/../lib/gcc/pic32mx/4.5.2/../../../../pic32mx/lib\libpic32.a(default-nmi-handler.o)

.bss%z169       0x00000000        0x0
 .bss           0x00000000        0x0 c:/microchip/xc32/v1.31/bin/../lib/gcc/pic32mx/4.5.2/../../../../pic32mx/lib\libpic32.a(default-on-bootstrap.o)

.data%z170      0x00000000        0x0
 .data          0x00000000        0x0 c:/microchip/xc32/v1.31/bin/../lib/gcc/pic32mx/4.5.2/../../../../pic32mx/lib\libpic32.a(default-on-bootstrap.o)

.bss%z171       0x00000000        0x0
 .bss           0x00000000        0x0 c:/microchip/xc32/v1.31/bin/../lib/gcc/pic32mx/4.5.2/../../../../pic32mx/lib\libpic32.a(default-on-reset.o)

.data%z172      0x00000000        0x0
 .data          0x00000000        0x0 c:/microchip/xc32/v1.31/bin/../lib/gcc/pic32mx/4.5.2/../../../../pic32mx/lib\libpic32.a(default-on-reset.o)

.bss%z173       0x00000000        0x0
 .bss           0x00000000        0x0 c:/microchip/xc32/v1.31/bin/../lib/gcc/pic32mx/4.5.2/../../../../pic32mx/lib\libpic32.a(default-bootstrap-exception-handler.o)

.data%z174      0x00000000        0x0
 .data          0x00000000        0x0 c:/microchip/xc32/v1.31/bin/../lib/gcc/pic32mx/4.5.2/../../../../pic32mx/lib\libpic32.a(default-bootstrap-exception-handler.o)

.bss%z175       0x00000000        0x0
 .bss           0x00000000        0x0 c:/microchip/xc32/v1.31/bin/../lib/gcc/pic32mx/4.5.2/../../../../pic32mx/lib\libpic32.a(memset.o)

.data%z176      0x00000000        0x0
 .data          0x00000000        0x0 c:/microchip/xc32/v1.31/bin/../lib/gcc/pic32mx/4.5.2/../../../../pic32mx/lib\libpic32.a(memset.o)

.bss%z177       0x00000000        0x0
 .bss           0x00000000        0x0 c:/microchip/xc32/v1.31/bin/../lib/gcc/pic32mx/4.5.2/../../../../pic32mx/lib\libpic32.a(memcpy.o)

.data%z178      0x00000000        0x0
 .data          0x00000000        0x0 c:/microchip/xc32/v1.31/bin/../lib/gcc/pic32mx/4.5.2/../../../../pic32mx/lib\libpic32.a(memcpy.o)

.bss%z179       0x00000000        0x0
 .bss           0x00000000        0x0 c:/microchip/xc32/v1.31/bin/../lib/gcc/pic32mx/4.5.2\libgcc.a(floatunsisf.o)

.data%z180      0x00000000        0x0
 .data          0x00000000        0x0 c:/microchip/xc32/v1.31/bin/../lib/gcc/pic32mx/4.5.2\libgcc.a(floatunsisf.o)

.bss%z181       0x00000000        0x0
 .bss           0x00000000        0x0 c:/microchip/xc32/v1.31/bin/../lib/gcc/pic32mx/4.5.2/../../../../pic32mx/lib/./proc/32MX795F512L\processor.o

.data%z182      0x00000000        0x0
 .data          0x00000000        0x0 c:/microchip/xc32/v1.31/bin/../lib/gcc/pic32mx/4.5.2/../../../../pic32mx/lib/./proc/32MX795F512L\processor.o

.bss%z183       0x00000000        0x0
 .bss           0x00000000        0x0 c:/microchip/xc32/v1.31/bin/../lib/gcc/pic32mx/4.5.2/../../../../pic32mx/lib/./proc/32MX795F512L\default_isr_vectors.o

.data%z184      0x00000000        0x0
 .data          0x00000000        0x0 c:/microchip/xc32/v1.31/bin/../lib/gcc/pic32mx/4.5.2/../../../../pic32mx/lib/./proc/32MX795F512L\default_isr_vectors.o

.bss%z185       0x00000000        0x0
 .bss           0x00000000        0x0 ..\..\..\..\..\..\microchip\xc32\v1.31\pic32mx\lib\libmchp_peripheral_32MX795F512L.a(uart_lib.o)

.data%z186      0x00000000        0x0
 .data          0x00000000        0x0 ..\..\..\..\..\..\microchip\xc32\v1.31\pic32mx\lib\libmchp_peripheral_32MX795F512L.a(uart_lib.o)

.bss%z187       0x00000000        0x0
 .bss           0x00000000        0x0 ..\..\..\..\..\..\microchip\xc32\v1.31\pic32mx\lib\libmchp_peripheral_32MX795F512L.a(_ports_tbl_libp.o)

.data%z188      0x00000000        0x0
 .data          0x00000000        0x0 ..\..\..\..\..\..\microchip\xc32\v1.31\pic32mx\lib\libmchp_peripheral_32MX795F512L.a(_ports_tbl_libp.o)

.bss%z189       0x00000000        0x0
 .bss           0x00000000        0x0 ..\..\..\..\..\..\microchip\xc32\v1.31\pic32mx\lib\libmchp_peripheral_32MX795F512L.a(port_set_bits_lib.o)

.data%z190      0x00000000        0x0
 .data          0x00000000        0x0 ..\..\..\..\..\..\microchip\xc32\v1.31\pic32mx\lib\libmchp_peripheral_32MX795F512L.a(port_set_bits_lib.o)

.bss%z191       0x00000000        0x0
 .bss           0x00000000        0x0 ..\..\..\..\..\..\microchip\xc32\v1.31\pic32mx\lib\libmchp_peripheral_32MX795F512L.a(port_clear_bits_lib.o)

.data%z192      0x00000000        0x0
 .data          0x00000000        0x0 ..\..\..\..\..\..\microchip\xc32\v1.31\pic32mx\lib\libmchp_peripheral_32MX795F512L.a(port_clear_bits_lib.o)

.bss%z193       0x00000000        0x0
 .bss           0x00000000        0x0 ..\..\..\..\..\..\microchip\xc32\v1.31\pic32mx\lib\libmchp_peripheral_32MX795F512L.a(port_read_bits_lib.o)

.data%z194      0x00000000        0x0
 .data          0x00000000        0x0 ..\..\..\..\..\..\microchip\xc32\v1.31\pic32mx\lib\libmchp_peripheral_32MX795F512L.a(port_read_bits_lib.o)

.bss%z195       0x00000000        0x0
 .bss           0x00000000        0x0 ..\..\..\..\..\..\microchip\xc32\v1.31\pic32mx\lib\libmchp_peripheral_32MX795F512L.a(port_set_pins_digital_out_lib.o)

.data%z196      0x00000000        0x0
 .data          0x00000000        0x0 ..\..\..\..\..\..\microchip\xc32\v1.31\pic32mx\lib\libmchp_peripheral_32MX795F512L.a(port_set_pins_digital_out_lib.o)

.bss%z197       0x00000000        0x0
 .bss           0x00000000        0x0 ..\..\..\..\..\..\microchip\xc32\v1.31\pic32mx\lib\libmchp_peripheral_32MX795F512L.a(port_set_pins_digital_in_lib.o)

.data%z198      0x00000000        0x0
 .data          0x00000000        0x0 ..\..\..\..\..\..\microchip\xc32\v1.31\pic32mx\lib\libmchp_peripheral_32MX795F512L.a(port_set_pins_digital_in_lib.o)

.bss%z199       0x00000000        0x0
 .bss           0x00000000        0x0 ..\..\..\..\..\..\microchip\xc32\v1.31\pic32mx\lib\libmchp_peripheral_32MX795F512L.a(nvm_write_word_lib.o)

.data%z200      0x00000000        0x0
 .data          0x00000000        0x0 ..\..\..\..\..\..\microchip\xc32\v1.31\pic32mx\lib\libmchp_peripheral_32MX795F512L.a(nvm_write_word_lib.o)

.bss%z201       0x00000000        0x0
 .bss           0x00000000        0x0 ..\..\..\..\..\..\microchip\xc32\v1.31\pic32mx\lib\libmchp_peripheral_32MX795F512L.a(nvm_operation_lib.o)

.data%z202      0x00000000        0x0
 .data          0x00000000        0x0 ..\..\..\..\..\..\microchip\xc32\v1.31\pic32mx\lib\libmchp_peripheral_32MX795F512L.a(nvm_operation_lib.o)

.bss%z203       0x00000000        0x0
 .bss           0x00000000        0x0 ..\..\..\..\..\..\microchip\xc32\v1.31\pic32mx\lib\libmchp_peripheral_32MX795F512L.a(nvm_erase_page_lib.o)

.data%z204      0x00000000        0x0
 .data          0x00000000        0x0 ..\..\..\..\..\..\microchip\xc32\v1.31\pic32mx\lib\libmchp_peripheral_32MX795F512L.a(nvm_erase_page_lib.o)

.bss%z205       0x00000000        0x0
 .bss           0x00000000        0x0 ..\..\..\..\..\..\microchip\xc32\v1.31\pic32mx\lib\libmchp_peripheral_32MX795F512L.a(int_tbl_lib.o)

.data%z206      0x00000000        0x0
 .data          0x00000000        0x0 ..\..\..\..\..\..\microchip\xc32\v1.31\pic32mx\lib\libmchp_peripheral_32MX795F512L.a(int_tbl_lib.o)

.bss%z207       0x00000000        0x0
 .bss           0x00000000        0x0 ..\..\..\..\..\..\microchip\xc32\v1.31\pic32mx\lib\libmchp_peripheral_32MX795F512L.a(int_restore_interrupts_lib.o)

.data%z208      0x00000000        0x0
 .data          0x00000000        0x0 ..\..\..\..\..\..\microchip\xc32\v1.31\pic32mx\lib\libmchp_peripheral_32MX795F512L.a(int_restore_interrupts_lib.o)

.bss%z209       0x00000000        0x0
 .bss           0x00000000        0x0 ..\..\..\..\..\..\microchip\xc32\v1.31\pic32mx\lib\libmchp_peripheral_32MX795F512L.a(int_disable_interrupts_lib.o)

.data%z210      0x00000000        0x0
 .data          0x00000000        0x0 ..\..\..\..\..\..\microchip\xc32\v1.31\pic32mx\lib\libmchp_peripheral_32MX795F512L.a(int_disable_interrupts_lib.o)

.bss%z211       0x00000000        0x0
 .bss           0x00000000        0x0 ..\..\..\..\..\..\microchip\xc32\v1.31\pic32mx\lib\libmchp_peripheral_32MX795F512L.a(int_enable_interrupts_lib.o)

.data%z212      0x00000000        0x0
 .data          0x00000000        0x0 ..\..\..\..\..\..\microchip\xc32\v1.31\pic32mx\lib\libmchp_peripheral_32MX795F512L.a(int_enable_interrupts_lib.o)

.bss%z213       0x00000000        0x0
 .bss           0x00000000        0x0 ..\..\..\..\..\..\microchip\xc32\v1.31\pic32mx\lib\libmchp_peripheral_32MX795F512L.a(int_configure_system_lib.o)

.data%z214      0x00000000        0x0
 .data          0x00000000        0x0 ..\..\..\..\..\..\microchip\xc32\v1.31\pic32mx\lib\libmchp_peripheral_32MX795F512L.a(int_configure_system_lib.o)

.bss%z215       0x00000000        0x0
 .bss           0x00000000        0x0 ..\..\..\..\..\..\microchip\xc32\v1.31\pic32mx\lib\libmchp_peripheral_32MX795F512L.a(pcache.o)

.data%z216      0x00000000        0x0
 .data          0x00000000        0x0 ..\..\..\..\..\..\microchip\xc32\v1.31\pic32mx\lib\libmchp_peripheral_32MX795F512L.a(pcache.o)

.bss%z217       0x00000000        0x0
 .bss           0x00000000        0x0 ..\..\..\..\..\..\microchip\xc32\v1.31\pic32mx\lib\libmchp_peripheral_32MX795F512L.a(open_core_timer_lib.o)

.data%z218      0x00000000        0x0
 .data          0x00000000        0x0 ..\..\..\..\..\..\microchip\xc32\v1.31\pic32mx\lib\libmchp_peripheral_32MX795F512L.a(open_core_timer_lib.o)

.data%z219      0x00000000        0x0
 .data          0x00000000        0x0 build/default/debug/src/app/app_tasks/protocol.o

.bss%z220       0x00000000        0x0
 .bss           0x00000000        0x0 build/default/debug/src/bsp/cnc_rev_00/bsp_sys_init.o

.bss%z221       0x00000000        0x0
 .bss           0x00000000        0x0 build/default/debug/src/app/app.o

.bss%z222       0x00000000        0x0
 .bss           0x00000000        0x0 build/default/debug/src/app/main.o

.data%z223      0x00000000        0x0
 .data          0x00000000        0x0 build/default/debug/src/app/main.o

.bss%z224       0x00000000        0x0
 .bss           0x00000000        0x0 build/default/debug/src/app/system_config/pic32_mx/system_task.o

.data%z225      0x00000000        0x0
 .data          0x00000000        0x0 build/default/debug/src/app/system_config/pic32_mx/system_task.o

.bss%z226       0x00000000        0x0
 .bss           0x00000000        0x0 build/default/debug/src/app/system_config/pic32_mx/system_interrupt.o

.data%z227      0x00000000        0x0
 .data          0x00000000        0x0 build/default/debug/src/app/system_config/pic32_mx/system_interrupt.o

.bss%z228       0x00000000        0x0
 .bss           0x00000000        0x0 build/default/debug/src/app/system_config/pic32_mx/system_init.o

.data%z229      0x00000000        0x0
 .data          0x00000000        0x0 build/default/debug/src/app/system_config/pic32_mx/system_init.o

.data%z230      0x00000000        0x0
 .data          0x00000000        0x0 build/default/debug/src/app/app_tasks/stepper.o

.bss%z231       0x00000000        0x0
 .bss           0x00000000        0x0 build/default/debug/src/app/app_tasks/report.o

.data%z232      0x00000000        0x0
 .data          0x00000000        0x0 build/default/debug/src/app/app_tasks/report.o

.bss%z233       0x00000000        0x0
 .bss           0x00000000        0x0 build/default/debug/src/app/app_tasks/dee_emulation_pic32.o

.data%z234      0x00000000        0x0
 .data          0x00000000        0x0 build/default/debug/src/app/app_tasks/dee_emulation_pic32.o

.bss%z235       0x00000000        0x0
 .bss           0x00000000        0x0 build/default/debug/src/app/app_tasks/eeprom.o

.data%z236      0x00000000        0x0
 .data          0x00000000        0x0 build/default/debug/src/app/app_tasks/eeprom.o

.bss%z237       0x00000000        0x0
 .bss           0x00000000        0x0 build/default/debug/src/app/app_tasks/settings.o

.data%z238      0x00000000        0x0
 .data          0x00000000        0x0 build/default/debug/src/app/app_tasks/settings.o

.bss%z239       0x00000000        0x0
 .bss           0x00000000        0x0 build/default/debug/src/app/app_tasks/nuts_bolts.o

.data%z240      0x00000000        0x0
 .data          0x00000000        0x0 build/default/debug/src/app/app_tasks/nuts_bolts.o

.bss%z241       0x00000000        0x0
 .bss           0x00000000        0x0 build/default/debug/src/app/app_tasks/motion.o

.data%z242      0x00000000        0x0
 .data          0x00000000        0x0 build/default/debug/src/app/app_tasks/motion.o

.bss%z243       0x00000000        0x0
 .bss           0x00000000        0x0 build/default/debug/src/app/app_tasks/g_code.o

.data%z244      0x00000000        0x0
 .data          0x00000000        0x0 build/default/debug/src/app/app_tasks/g_code.o

.data%z245      0x00000000        0x0
 .data          0x00000000        0x0 build/default/debug/src/app/app_tasks/program_planner.o

.bss%z246       0x00000000        0x0
 .bss           0x00000000        0x0 c:/microchip/xc32/v1.31/bin/../lib/gcc/pic32mx/4.5.2/../../../../pic32mx/lib/./proc/32MX795F512L/crt0_mips32r2.o

.data%z247      0x00000000        0x0
 .data          0x00000000        0x0 c:/microchip/xc32/v1.31/bin/../lib/gcc/pic32mx/4.5.2/../../../../pic32mx/lib/./proc/32MX795F512L/crt0_mips32r2.o

.rodata         0x9d000000     0x3000
 .rodata        0x9d000000     0x3000 build/default/debug/src/app/app_tasks/dee_emulation_pic32.o
                0x9d000000                eedata_addr

.text           0x9d003000     0xfa1c
 .text          0x9d003000     0x24ac build/default/debug/src/app/app_tasks/g_code.o
                0x9d003064                GcodeInit
                0x9d0030e8                gc_set_current_position
                0x9d0032f4                ExecuteLine
                0x9d0050dc                ftoa
 .text          0x9d0054ac     0x2444 build/default/debug/src/bsp/cnc_rev_00/bsp_sys_init.o
                0x9d0054ac                BSP_Initialize
                0x9d005a38                BSP_MoveAxis
                0x9d005d24                BSP_Timer1Start
                0x9d005f4c                BSP_Timer2Start
                0x9d0062f4                BSP_Timer3Start
                0x9d00669c                BSP_Timer4Start
                0x9d006a44                BSP_Timer1Stop
                0x9d006a80                BSP_Timer2Stop
                0x9d006abc                BSP_Timer3Stop
                0x9d006af8                BSP_Timer4Stop
                0x9d006b34                BSP_PWM_Enable
                0x9d006c94                BSP_PWM_Disable
                0x9d006ddc                BSP_AxisEnable
                0x9d006ff0                BSP_AxisDisable
                0x9d0070d0                BSP_SetStepSize
                0x9d007610                BSP_GetLimitSwitch
                0x9d007678                BSP_GetUartChar
                0x9d0076bc                BSP_WriteString
                0x9d0077cc                BSP_PutCharacter
                0x9d0078b4                delay_ms
 .text          0x9d0078f0     0x1ecc build/default/debug/src/app/app_tasks/program_planner.o
                0x9d008558                plan_reset_buffer
                0x9d0085a4                plan_init
                0x9d0085ec                plan_discard_current_block
                0x9d008644                plan_get_current_block
                0x9d0086c0                plan_check_full_buffer
                0x9d008704                plan_synchronize
                0x9d008724                plan_buffer_line
                0x9d00965c                plan_set_current_position
                0x9d0096b4                plan_cycle_reinitialize
 .text          0x9d0097bc     0x1b50 build/default/debug/src/app/app_tasks/dee_emulation_pic32.o
                0x9d0097bc                GetPageStatus
                0x9d0098d0                ErasePage
                0x9d009a40                PrevPage
                0x9d009a8c                GetNextAvailCount
                0x9d009c38                EmulationCheckSum
                0x9d009cac                DataEEInit
                0x9d00a07c                DataEEWrite
                0x9d00a5d8                DataEERead
                0x9d00aa4c                PackEE
                0x9d00b058                DataEEWriteArray
                0x9d00b188                DataEEReadArray
 .text          0x9d00b30c     0x1990 build/default/debug/src/app/app_tasks/report.o
                0x9d00b30c                report_status_message
                0x9d00b518                report_alarm_message
                0x9d00b5b0                report_feedback_message
                0x9d00b6b8                report_init_message
                0x9d00b6f0                report_grbl_help
                0x9d00b728                report_grbl_settings
                0x9d00bb7c                report_realtime_status
                0x9d00bfe8                report_gcode_modes
                0x9d00c3fc                report_gcode_parameters
                0x9d00c768                report_startup_line
                0x9d00c7e8                print_uint8_base2
                0x9d00c9ac                printInteger
                0x9d00ca0c                printFloat
 .text          0x9d00cc9c     0x12a0 build/default/debug/src/app/system_config/pic32_mx/system_interrupt.o
                0x9d00cc9c                _Interrupt_Z_Limit
                0x9d00cdc4                _Interrupt_XY_Limit
                0x9d00cf34                _InterruptHandler_TMR4
                0x9d00d0ec                _InterruptHandler_TMR3
                0x9d00d274                _InterruptHandler_TMR2
                0x9d00d448                _InterruptHandler_TMR1
                0x9d00d4a0                IntUart2Handler
                0x9d00d660                CoreTimerHandler
 .text          0x9d00df3c     0x11c0 build/default/debug/src/app/app_tasks/motion.o
                0x9d00df3c                MotionLine
                0x9d00e04c                MotionArc
                0x9d00e77c                MotionReset
                0x9d00e84c                MotionGoHome
 .text          0x9d00f0fc     0x1128 c:/microchip/xc32/v1.31/bin/../lib/gcc/pic32mx/4.5.2/../../../../pic32mx/lib\libm.a(dp32.o)
                0x9d00f0fc                dpsub
                0x9d00f0fc                __subdf3
                0x9d00f104                dpadd
                0x9d00f104                __adddf3
                0x9d00f528                __muldf3
                0x9d00f528                dpmul
                0x9d00f850                dpdiv
                0x9d00f850                __divdf3
                0x9d00fd04                __floatsidf
                0x9d00fd04                litodp
                0x9d00fd78                ultodp
                0x9d00fdc8                fptodp
                0x9d00fdc8                __extendsfdf2
                0x9d00fe6c                dptofp
                0x9d00fe6c                __truncdfsf2
                0x9d00ff64                __fixdfsi
                0x9d00ff64                dptoli
                0x9d00ffec                dptoul
                0x9d00ffec                __fixunsdfsi
                0x9d010070                dpcmp
                0x9d010070                __eqdf2
                0x9d010070                __gedf2
                0x9d010070                __ltdf2
                0x9d010070                __ledf2
                0x9d010070                __gtdf2
                0x9d010070                __nedf2
                0x9d010194                __negdf2
                0x9d0101ac                dpfabs
                0x9d0101ac                fabs
                0x9d0101c8                dpnan
                0x9d0101c8                nan
 .text          0x9d010224      0xb9c build/default/debug/src/app/app_tasks/settings.o
                0x9d010224                settings_store_startup_line
                0x9d010284                settings_write_coord_data
                0x9d010300                write_global_settings
                0x9d010354                settings_reset
                0x9d010508                settings_read_startup_line
                0x9d01059c                settings_read_coord_data
                0x9d010658                read_global_settings
                0x9d010734                settings_store_global_setting
                0x9d010d14                settings_init
 .text          0x9d010dc0      0xa08 c:/microchip/xc32/v1.31/bin/../lib/gcc/pic32mx/4.5.2/../../../../pic32mx/lib\libm.a(fparc32.o)
                0x9d010dc0                fpexatan
                0x9d01110c                atanf
                0x9d01110c                fpatan
                0x9d0111a8                fpatan2
                0x9d0111a8                __mchp_atan2f
                0x9d0113ec                __mchp_asinf
                0x9d0113ec                fpasin
                0x9d0115c4                fpacos
                0x9d0115c4                __mchp_acosf
 .text          0x9d0117c8      0x968 build/default/debug/src/app/app_tasks/protocol.o
                0x9d0117f0                protocol_init
                0x9d011828                protocol_execute_startup
                0x9d0118ec                protocol_execute_runtime
                0x9d011b44                protocol_execute_line
 .text          0x9d012130      0x8ec c:/microchip/xc32/v1.31/bin/../lib/gcc/pic32mx/4.5.2/../../../../pic32mx/lib\libm.a(fp32.o)
                0x9d012130                __subsf3
                0x9d012130                fpsub
                0x9d012138                fpadd
                0x9d012138                __addsf3
                0x9d0123a4                fpmul
                0x9d0123a4                __mulsf3
                0x9d01255c                __divsf3
                0x9d01255c                fpdiv
                0x9d012788                litofp
                0x9d012788                sitofp
                0x9d012788                __floatsisf
                0x9d0127e4                ultofp
                0x9d0127e4                uitofp
                0x9d012830                fptosi
                0x9d012830                fptoli
                0x9d012830                __fixsfsi
                0x9d0128a8                fptoui
                0x9d0128a8                fptoul
                0x9d0128a8                __fixunssfsi
                0x9d01291c                __nesf2
                0x9d01291c                fpcmp
                0x9d01291c                __lesf2
                0x9d01291c                __ltsf2
                0x9d01291c                __gesf2
                0x9d01291c                __eqsf2
                0x9d01291c                __gtsf2
                0x9d0129b0                fabsf
                0x9d0129b0                fpfabs
                0x9d0129c0                __negsf2
                0x9d0129d0                fpnan
                0x9d0129d0                nanf

.rodata         0x9d012a1c      0x7d4
 .rodata        0x9d012a1c      0x7d4 ..\..\..\..\..\..\microchip\xc32\v1.31\pic32mx\lib\libmchp_peripheral_32MX795F512L.a(int_tbl_lib.o)
                0x9d012a1c                __IntSrcTbl
                0x9d012f38                __IntVectorTbl

.text           0x9d0131f0      0x6e8
 .text          0x9d0131f0      0x6e8 build/default/debug/src/app/app_tasks/stepper.o
                0x9d0131f0                st_wake_up
                0x9d013348                st_go_idle
                0x9d013524                st_reset
                0x9d013578                st_init
                0x9d013790                st_cycle_start
                0x9d0137c0                st_feed_hold
                0x9d013814                st_cycle_reinitialize

.rodata         0x9d0138d8      0x6b8
 .rodata        0x9d0138d8      0x6b8 build/default/debug/src/app/app_tasks/report.o

.text           0x9d013f90      0xb84
 .text          0x9d013f90      0x5c8 c:/microchip/xc32/v1.31/bin/../lib/gcc/pic32mx/4.5.2/../../../../pic32mx/lib\libm.a(mod32.o)
                0x9d013f90                dpfmod
                0x9d013f90                fmod
                0x9d014230                frexp
                0x9d014230                dpfrexp
                0x9d0142d4                dpldexp
                0x9d0142d4                __mchp_ldexp
                0x9d01443c                dpmodf
                0x9d01443c                modf
 .text          0x9d014558      0x5bc c:/microchip/xc32/v1.31/bin/../lib/gcc/pic32mx/4.5.2/../../../../pic32mx/lib\libm.a(sqrt32.o)
                0x9d014558                exsqrt
                0x9d0147f0                __mchp_sqrt
                0x9d0147f0                dpsqrt

.text.dreml     0x9d014b14      0x480
 .text.dreml    0x9d014b14      0x480 c:/microchip/xc32/v1.31/bin/../lib/gcc/pic32mx/4.5.2/../../../../pic32mx/lib\libm.a(support.o)
                0x9d014b14                dreml

.text.hypotl    0x9d014f94      0x40c
 .text.hypotl   0x9d014f94      0x40c c:/microchip/xc32/v1.31/bin/../lib/gcc/pic32mx/4.5.2/../../../../pic32mx/lib\libm.a(cabs.o)
                0x9d014f94                hypotl

.text           0x9d0153a0      0x79c
 .text          0x9d0153a0      0x404 build/default/debug/src/app/app.o
                0x9d0153a0                APP_Initialize
                0x9d0153f8                APP_Tasks
                0x9d01555c                read_buffer
 .text          0x9d0157a4      0x398 build/default/debug/src/app/app_tasks/nuts_bolts.o
                0x9d0157a4                read_float
                0x9d015aac                sys_sync_current_position

.dinit          0x9d015b3c      0x340
 .dinit         0x9d015b3c      0x340 data_init

.text           0x9d015e7c      0x33c
 .text          0x9d015e7c      0x33c build/default/debug/src/app/system_config/pic32_mx/system_init.o
                0x9d015e7c                SYS_Initialize

.text.atan2f    0x9d0161b8      0x318
 .text.atan2f   0x9d0161b8      0x318 c:/microchip/xc32/v1.31/bin/../lib/gcc/pic32mx/4.5.2/../../../../pic32mx/lib\libm.a(w_atan2f.o)
                0x9d0161b8                atan2f

.text           0x9d0164d0      0x66c
 .text          0x9d0164d0      0x2a0 c:/microchip/xc32/v1.31/bin/../lib/gcc/pic32mx/4.5.2/../../../../pic32mx/lib\libm.a(fpsqrt32.o)
                0x9d0164d0                fpexsqrt
                0x9d0165c8                __mchp_sqrtf
                0x9d0165c8                fpsqrt
 .text          0x9d016770      0x264 build/default/debug/src/app/app_tasks/eeprom.o
                0x9d016770                eeprom_get_char
                0x9d0167b8                eeprom_put_char
                0x9d016800                memcpy_to_eeprom_with_checksum
                0x9d0168ec                memcpy_from_eeprom_with_checksum
 .text          0x9d0169d4      0x168 c:/microchip/xc32/v1.31/bin/../lib/gcc/pic32mx/4.5.2/../../../../pic32mx/lib\libpic32.a(memcpy.o)
                0x9d0169d4                memcpy

.text.logbl     0x9d016b3c      0x120
 .text.logbl    0x9d016b3c      0x120 c:/microchip/xc32/v1.31/bin/../lib/gcc/pic32mx/4.5.2/../../../../pic32mx/lib\libm.a(support.o)
                0x9d016b3c                logbl

.text           0x9d016c5c      0x118
 .text          0x9d016c5c      0x118 c:/microchip/xc32/v1.31/bin/../lib/gcc/pic32mx/4.5.2/../../../../pic32mx/lib\libm.a(fpsin32.o)
                0x9d016c5c                sinf
                0x9d016c5c                fpsin

.text._NVMOperation
                0x9d016d74      0x114
 .text._NVMOperation
                0x9d016d74      0x114 ..\..\..\..\..\..\microchip\xc32\v1.31\pic32mx\lib\libmchp_peripheral_32MX795F512L.a(nvm_operation_lib.o)
                0x9d016d74                _NVMOperation

.text           0x9d016e88      0x21c
 .text          0x9d016e88      0x114 c:/microchip/xc32/v1.31/bin/../lib/gcc/pic32mx/4.5.2/../../../../pic32mx/lib\libm.a(fpcos32.o)
                0x9d016e88                fpcos
                0x9d016e88                cosf
 .text          0x9d016f9c      0x108 c:/microchip/xc32/v1.31/bin/../lib/gcc/pic32mx/4.5.2/../../../../pic32mx/lib\libm.a(fpreduct32.o)
                0x9d016f9c                fpreduct

.text.general_exception
                0x9d0170a4       0xdc
 .text.general_exception
                0x9d0170a4       0xdc c:/microchip/xc32/v1.31/bin/../lib/gcc/pic32mx/4.5.2/../../../../pic32mx/lib\libpic32.a(general-exception.o)
                0x9d0170a4                _general_exception_context

.text           0x9d017180      0x204
 .text          0x9d017180       0xb0 c:/microchip/xc32/v1.31/bin/../lib/gcc/pic32mx/4.5.2/../../../../pic32mx/lib\libm.a(fpfloo32.o)
                0x9d017180                floorf
                0x9d017180                fpfloor
 .text          0x9d017230       0xac c:/microchip/xc32/v1.31/bin/../lib/gcc/pic32mx/4.5.2/../../../../pic32mx/lib\libm.a(fpceil32.o)
                0x9d017230                ceilf
                0x9d017230                fpceil
 .text          0x9d0172dc       0xa8 c:/microchip/xc32/v1.31/bin/../lib/gcc/pic32mx/4.5.2/../../../../pic32mx/lib\libpic32.a(memset.o)
                0x9d0172dc                memset

.text.isinf     0x9d017384       0x8c
 .text.isinf    0x9d017384       0x8c c:/microchip/xc32/v1.31/bin/../lib/gcc/pic32mx/4.5.2/../../../../pic32mx/lib\libpic32.a(isinf.o)
                0x9d017384                isinf

.text.isinff    0x9d017410       0x8c
 .text.isinff   0x9d017410       0x8c c:/microchip/xc32/v1.31/bin/../lib/gcc/pic32mx/4.5.2/../../../../pic32mx/lib\libpic32.a(isinf.o)
                0x9d017410                isinff

.text.UARTEnable
                0x9d01749c       0x80
 .text.UARTEnable
                0x9d01749c       0x80 ..\..\..\..\..\..\microchip\xc32\v1.31\pic32mx\lib\libmchp_peripheral_32MX795F512L.a(uart_lib.o)
                0x9d01749c                UARTEnable

.text.utoa      0x9d01751c       0x68
 .text.utoa     0x9d01751c       0x68 c:/microchip/xc32/v1.31/bin/../lib/gcc/pic32mx/4.5.2/../../../../pic32mx/lib\libc.a(itoa.o)
                0x9d01751c                utoa

.text.__unorddf2
                0x9d017584       0x68
 .text.__unorddf2
                0x9d017584       0x68 c:/microchip/xc32/v1.31/bin/../lib/gcc/pic32mx/4.5.2/../../../../pic32mx/lib\libe.a(_unorddf2.o)
                0x9d017584                __unorddf2

.text.sqrt      0x9d0175ec       0x64
 .text.sqrt     0x9d0175ec       0x64 c:/microchip/xc32/v1.31/bin/../lib/gcc/pic32mx/4.5.2/../../../../pic32mx/lib\libm.a(w_sqrt.o)
                0x9d0175ec                sqrt

.rodata         0x9d017650       0x60
 .rodata        0x9d017650       0x60 build/default/debug/src/app/system_config/pic32_mx/system_init.o

.text.copysign  0x9d0176b0       0x60
 .text.copysign
                0x9d0176b0       0x60 c:/microchip/xc32/v1.31/bin/../lib/gcc/pic32mx/4.5.2/../../../../pic32mx/lib\libm.a(support.o)
                0x9d0176b0                copysign

.text.copysignf
                0x9d017710       0x60
 .text.copysignf
                0x9d017710       0x60 c:/microchip/xc32/v1.31/bin/../lib/gcc/pic32mx/4.5.2/../../../../pic32mx/lib\libm.a(support.o)
                0x9d017710                copysignf

.text.ldexp     0x9d017770       0x60
 .text.ldexp    0x9d017770       0x60 c:/microchip/xc32/v1.31/bin/../lib/gcc/pic32mx/4.5.2/../../../../pic32mx/lib\libm.a(w_ldexp.o)
                0x9d017770                ldexp

.text.UARTSetDataRate
                0x9d0177d0       0x5c
 .text.UARTSetDataRate
                0x9d0177d0       0x5c ..\..\..\..\..\..\microchip\xc32\v1.31\pic32mx\lib\libmchp_peripheral_32MX795F512L.a(uart_lib.o)
                0x9d0177d0                UARTSetDataRate

.rodata         0x9d01782c       0x54
 .rodata        0x9d01782c       0x54 ..\..\..\..\..\..\microchip\xc32\v1.31\pic32mx\lib\libmchp_peripheral_32MX795F512L.a(_ports_tbl_libp.o)
                0x9d01782c                PortRegTbl

.text.INTEnable
                0x9d017880       0x50
 .text.INTEnable
                0x9d017880       0x50 ..\..\..\..\..\..\microchip\xc32\v1.31\pic32mx\lib\libmchp_peripheral_32MX795F512L.a(int_tbl_lib.o)
                0x9d017880                INTEnable

.text.sqrtf     0x9d0178d0       0x50
 .text.sqrtf    0x9d0178d0       0x50 c:/microchip/xc32/v1.31/bin/../lib/gcc/pic32mx/4.5.2/../../../../pic32mx/lib\libm.a(w_sqrtf.o)
                0x9d0178d0                sqrtf

.text.main_entry
                0x9d017920       0x4c
 .text.main_entry
                0x9d017920       0x4c c:/microchip/xc32/v1.31/bin/../lib/gcc/pic32mx/4.5.2/../../../../pic32mx/lib/./proc/32MX795F512L/crt0_mips32r2.o
                0x9d01794c                __crt0_exit

.text           0x9d01796c       0x90
 .text          0x9d01796c       0x4c c:/microchip/xc32/v1.31/bin/../lib/gcc/pic32mx/4.5.2\libgcc.a(floatunsisf.o)
                0x9d01796c                __floatunsisf
 .text          0x9d0179b8       0x44 c:/microchip/xc32/v1.31/bin/../lib/gcc/pic32mx/4.5.2/../../../../pic32mx/lib\libpic32.a(pic32_software_reset.o)
                0x9d0179b8                __pic32_software_reset

.text.UARTGetDataRate
                0x9d0179fc       0x40
 .text.UARTGetDataRate
                0x9d0179fc       0x40 ..\..\..\..\..\..\microchip\xc32\v1.31\pic32mx\lib\libmchp_peripheral_32MX795F512L.a(uart_lib.o)
                0x9d0179fc                UARTGetDataRate

.text.itoa      0x9d017a3c       0x40
 .text.itoa     0x9d017a3c       0x40 c:/microchip/xc32/v1.31/bin/../lib/gcc/pic32mx/4.5.2/../../../../pic32mx/lib\libc.a(itoa.o)
                0x9d017a3c                itoa

.text.PORTSetPinsDigitalIn
                0x9d017a7c       0x3c
 .text.PORTSetPinsDigitalIn
                0x9d017a7c       0x3c ..\..\..\..\..\..\microchip\xc32\v1.31\pic32mx\lib\libmchp_peripheral_32MX795F512L.a(port_set_pins_digital_in_lib.o)
                0x9d017a7c                PORTSetPinsDigitalIn

.text.PORTSetPinsDigitalOut
                0x9d017ab8       0x3c
 .text.PORTSetPinsDigitalOut
                0x9d017ab8       0x3c ..\..\..\..\..\..\microchip\xc32\v1.31\pic32mx\lib\libmchp_peripheral_32MX795F512L.a(port_set_pins_digital_out_lib.o)
                0x9d017ab8                PORTSetPinsDigitalOut

.text.UARTConfigure
                0x9d017af4       0x3c
 .text.UARTConfigure
                0x9d017af4       0x3c ..\..\..\..\..\..\microchip\xc32\v1.31\pic32mx\lib\libmchp_peripheral_32MX795F512L.a(uart_lib.o)
                0x9d017af4                UARTConfigure

.text.UARTSetAddress
                0x9d017b30       0x3c
 .text.UARTSetAddress
                0x9d017b30       0x3c ..\..\..\..\..\..\microchip\xc32\v1.31\pic32mx\lib\libmchp_peripheral_32MX795F512L.a(uart_lib.o)
                0x9d017b30                UARTSetAddress

.text.INTSetVectorPriority
                0x9d017b6c       0x38
 .text.INTSetVectorPriority
                0x9d017b6c       0x38 ..\..\..\..\..\..\microchip\xc32\v1.31\pic32mx\lib\libmchp_peripheral_32MX795F512L.a(int_tbl_lib.o)
                0x9d017b6c                INTSetVectorPriority

.text.INTSetVectorSubPriority
                0x9d017ba4       0x38
 .text.INTSetVectorSubPriority
                0x9d017ba4       0x38 ..\..\..\..\..\..\microchip\xc32\v1.31\pic32mx\lib\libmchp_peripheral_32MX795F512L.a(int_tbl_lib.o)
                0x9d017ba4                INTSetVectorSubPriority

.text.UARTWatchForAddress
                0x9d017bdc       0x38
 .text.UARTWatchForAddress
                0x9d017bdc       0x38 ..\..\..\..\..\..\microchip\xc32\v1.31\pic32mx\lib\libmchp_peripheral_32MX795F512L.a(uart_lib.o)
                0x9d017bdc                UARTWatchForAddress

.text._bootstrap_exception_handler
                0x9d017c14       0x38
 .text._bootstrap_exception_handler
                0x9d017c14       0x38 c:/microchip/xc32/v1.31/bin/../lib/gcc/pic32mx/4.5.2/../../../../pic32mx/lib\libpic32.a(default-bootstrap-exception-handler.o)
                0x9d017c14                _bootstrap_exception_handler

.text._general_exception_handler
                0x9d017c4c       0x38
 .text._general_exception_handler
                0x9d017c4c       0x38 c:/microchip/xc32/v1.31/bin/../lib/gcc/pic32mx/4.5.2/../../../../pic32mx/lib\libpic32.a(default-general-exception-handler.o)
                0x9d017c4c                _general_exception_handler

.text.NVMWriteWord
                0x9d017c84       0x34
 .text.NVMWriteWord
                0x9d017c84       0x34 ..\..\..\..\..\..\microchip\xc32\v1.31\pic32mx\lib\libmchp_peripheral_32MX795F512L.a(nvm_write_word_lib.o)
                0x9d017c84                NVMWriteWord

.text.copysignl
                0x9d017cb8       0x34
 .text.copysignl
                0x9d017cb8       0x34 c:/microchip/xc32/v1.31/bin/../lib/gcc/pic32mx/4.5.2/../../../../pic32mx/lib\libm.a(support.o)
                0x9d017cb8                copysignl

.text.finite    0x9d017cec       0x34
 .text.finite   0x9d017cec       0x34 c:/microchip/xc32/v1.31/bin/../lib/gcc/pic32mx/4.5.2/../../../../pic32mx/lib\libm.a(support.o)
                0x9d017cec                finite

.text.finitef   0x9d017d20       0x34
 .text.finitef  0x9d017d20       0x34 c:/microchip/xc32/v1.31/bin/../lib/gcc/pic32mx/4.5.2/../../../../pic32mx/lib\libm.a(support.o)
                0x9d017d20                finitef

.text.isnan     0x9d017d54       0x34
 .text.isnan    0x9d017d54       0x34 c:/microchip/xc32/v1.31/bin/../lib/gcc/pic32mx/4.5.2/../../../../pic32mx/lib\libpic32.a(isinf.o)
                0x9d017d54                isnan

.text.isnanf    0x9d017d88       0x34
 .text.isnanf   0x9d017d88       0x34 c:/microchip/xc32/v1.31/bin/../lib/gcc/pic32mx/4.5.2/../../../../pic32mx/lib\libpic32.a(isinf.o)
                0x9d017d88                isnanf

.rodata         0x9d017dbc       0x30
 .rodata        0x9d017dbc       0x30 build/default/debug/src/app/app_tasks/settings.o

.text           0x9d017dec       0x30
 .text          0x9d017dec       0x30 build/default/debug/src/app/system_config/pic32_mx/system_task.o
                0x9d017dec                SYS_Tasks

.text.INTConfigureSystem
                0x9d017e1c       0x30
 .text.INTConfigureSystem
                0x9d017e1c       0x30 ..\..\..\..\..\..\microchip\xc32\v1.31\pic32mx\lib\libmchp_peripheral_32MX795F512L.a(int_configure_system_lib.o)
                0x9d017e1c                INTConfigureSystem

.vector_default
                0x9d017e4c       0x30
 .vector_default
                0x9d017e4c       0x30 c:/microchip/xc32/v1.31/bin/../lib/gcc/pic32mx/4.5.2/../../../../pic32mx/lib\libpic32.a(defaultinterrupt.o)
                0x9d017e4c                _DefaultInterrupt

.text           0x9d017e7c       0x2c
 .text          0x9d017e7c       0x2c build/default/debug/src/app/main.o
                0x9d017e7c                main

.text.INTGetVectorPriority
                0x9d017ea8       0x2c
 .text.INTGetVectorPriority
                0x9d017ea8       0x2c ..\..\..\..\..\..\microchip\xc32\v1.31\pic32mx\lib\libmchp_peripheral_32MX795F512L.a(int_tbl_lib.o)
                0x9d017ea8                INTGetVectorPriority

.text.INTGetVectorSubPriority
                0x9d017ed4       0x2c
 .text.INTGetVectorSubPriority
                0x9d017ed4       0x2c ..\..\..\..\..\..\microchip\xc32\v1.31\pic32mx\lib\libmchp_peripheral_32MX795F512L.a(int_tbl_lib.o)
                0x9d017ed4                INTGetVectorSubPriority

.text.NVMErasePage
                0x9d017f00       0x2c
 .text.NVMErasePage
                0x9d017f00       0x2c ..\..\..\..\..\..\microchip\xc32\v1.31\pic32mx\lib\libmchp_peripheral_32MX795F512L.a(nvm_erase_page_lib.o)
                0x9d017f00                NVMErasePage

.text.INTClearFlag
                0x9d017f2c       0x28
 .text.INTClearFlag
                0x9d017f2c       0x28 ..\..\..\..\..\..\microchip\xc32\v1.31\pic32mx\lib\libmchp_peripheral_32MX795F512L.a(int_tbl_lib.o)
                0x9d017f2c                INTClearFlag

.text.INTSetFlag
                0x9d017f54       0x28
 .text.INTSetFlag
                0x9d017f54       0x28 ..\..\..\..\..\..\microchip\xc32\v1.31\pic32mx\lib\libmchp_peripheral_32MX795F512L.a(int_tbl_lib.o)
                0x9d017f54                INTSetFlag

.text.INTGetFlag
                0x9d017f7c       0x28
 .text.INTGetFlag
                0x9d017f7c       0x28 ..\..\..\..\..\..\microchip\xc32\v1.31\pic32mx\lib\libmchp_peripheral_32MX795F512L.a(int_tbl_lib.o)
                0x9d017f7c                INTGetFlag

.text.INTGetEnable
                0x9d017fa4       0x28
 .text.INTGetEnable
                0x9d017fa4       0x28 ..\..\..\..\..\..\microchip\xc32\v1.31\pic32mx\lib\libmchp_peripheral_32MX795F512L.a(int_tbl_lib.o)
                0x9d017fa4                INTGetEnable

.text.UARTSetFifoMode
                0x9d017fcc       0x28
 .text.UARTSetFifoMode
                0x9d017fcc       0x28 ..\..\..\..\..\..\microchip\xc32\v1.31\pic32mx\lib\libmchp_peripheral_32MX795F512L.a(uart_lib.o)
                0x9d017fcc                UARTSetFifoMode

.text.UARTSetLineControl
                0x9d017ff4       0x28
 .text.UARTSetLineControl
                0x9d017ff4       0x28 ..\..\..\..\..\..\microchip\xc32\v1.31\pic32mx\lib\libmchp_peripheral_32MX795F512L.a(uart_lib.o)
                0x9d017ff4                UARTSetLineControl

.rodata         0x9d018020       0x28
 .rodata        0x9d018020       0x28 c:/microchip/xc32/v1.31/bin/../lib/gcc/pic32mx/4.5.2/../../../../pic32mx/lib\libm.a(w_atan2f.o)

.text.hypot     0x9d018048       0x28
 .text.hypot    0x9d018048       0x28 c:/microchip/xc32/v1.31/bin/../lib/gcc/pic32mx/4.5.2/../../../../pic32mx/lib\libm.a(cabs.o)
                0x9d018048                hypot

.text.hypotf    0x9d018070       0x28
 .text.hypotf   0x9d018070       0x28 c:/microchip/xc32/v1.31/bin/../lib/gcc/pic32mx/4.5.2/../../../../pic32mx/lib\libm.a(cabs.o)
                0x9d018070                hypotf

.rodata         0x9d018098       0x28
 .rodata        0x9d018098       0x28 c:/microchip/xc32/v1.31/bin/../lib/gcc/pic32mx/4.5.2/../../../../pic32mx/lib\libm.a(cabs.o)

.text.logb      0x9d0180c0       0x28
 .text.logb     0x9d0180c0       0x28 c:/microchip/xc32/v1.31/bin/../lib/gcc/pic32mx/4.5.2/../../../../pic32mx/lib\libm.a(support.o)
                0x9d0180c0                logb

.text.logbf     0x9d0180e8       0x28
 .text.logbf    0x9d0180e8       0x28 c:/microchip/xc32/v1.31/bin/../lib/gcc/pic32mx/4.5.2/../../../../pic32mx/lib\libm.a(support.o)
                0x9d0180e8                logbf

.text.drem      0x9d018110       0x28
 .text.drem     0x9d018110       0x28 c:/microchip/xc32/v1.31/bin/../lib/gcc/pic32mx/4.5.2/../../../../pic32mx/lib\libm.a(support.o)
                0x9d018110                drem

.text.dremf     0x9d018138       0x28
 .text.dremf    0x9d018138       0x28 c:/microchip/xc32/v1.31/bin/../lib/gcc/pic32mx/4.5.2/../../../../pic32mx/lib\libm.a(support.o)
                0x9d018138                dremf

.text.PORTReadBits
                0x9d018160       0x24
 .text.PORTReadBits
                0x9d018160       0x24 ..\..\..\..\..\..\microchip\xc32\v1.31\pic32mx\lib\libmchp_peripheral_32MX795F512L.a(port_read_bits_lib.o)
                0x9d018160                PORTReadBits

.text.PORTClearBits
                0x9d018184       0x24
 .text.PORTClearBits
                0x9d018184       0x24 ..\..\..\..\..\..\microchip\xc32\v1.31\pic32mx\lib\libmchp_peripheral_32MX795F512L.a(port_clear_bits_lib.o)
                0x9d018184                PORTClearBits

.text.PORTSetBits
                0x9d0181a8       0x24
 .text.PORTSetBits
                0x9d0181a8       0x24 ..\..\..\..\..\..\microchip\xc32\v1.31\pic32mx\lib\libmchp_peripheral_32MX795F512L.a(port_set_bits_lib.o)
                0x9d0181a8                PORTSetBits

.text.isnanl    0x9d0181cc       0x24
 .text.isnanl   0x9d0181cc       0x24 c:/microchip/xc32/v1.31/bin/../lib/gcc/pic32mx/4.5.2/../../../../pic32mx/lib\libpic32.a(isinf.o)
                0x9d0181cc                isnanl

.text.isinfl    0x9d0181f0       0x24
 .text.isinfl   0x9d0181f0       0x24 c:/microchip/xc32/v1.31/bin/../lib/gcc/pic32mx/4.5.2/../../../../pic32mx/lib\libpic32.a(isinf.o)
                0x9d0181f0                isinfl

.rodata         0x9d018214       0x20
 .rodata        0x9d018214       0x20 build/default/debug/src/app/app_tasks/g_code.o

.rodata         0x9d018238       0x58
 .rodata        0x9d018238       0x20 c:/microchip/xc32/v1.31/bin/../lib/gcc/pic32mx/4.5.2/../../../../pic32mx/lib\libm.a(support.o)
 .rodata        0x9d018258       0x1c build/default/debug/src/app/app_tasks/program_planner.o
 .rodata        0x9d018274       0x1c build/default/debug/src/app/app_tasks/motion.o

.text.INTRestoreInterrupts
                0x9d018290       0x1c
 .text.INTRestoreInterrupts
                0x9d018290       0x1c ..\..\..\..\..\..\microchip\xc32\v1.31\pic32mx\lib\libmchp_peripheral_32MX795F512L.a(int_restore_interrupts_lib.o)
                0x9d018290                INTRestoreInterrupts

.text.finitel   0x9d0182ac       0x1c
 .text.finitel  0x9d0182ac       0x1c c:/microchip/xc32/v1.31/bin/../lib/gcc/pic32mx/4.5.2/../../../../pic32mx/lib\libm.a(support.o)
                0x9d0182ac                finitel

.text.CheKseg0CacheOff
                0x9d0182c8       0x18
 .text.CheKseg0CacheOff
                0x9d0182c8       0x18 ..\..\..\..\..\..\microchip\xc32\v1.31\pic32mx\lib\libmchp_peripheral_32MX795F512L.a(pcache.o)
                0x9d0182c8                CheKseg0CacheOff

.text.CheKseg0CacheOn
                0x9d0182e0       0x18
 .text.CheKseg0CacheOn
                0x9d0182e0       0x18 ..\..\..\..\..\..\microchip\xc32\v1.31\pic32mx\lib\libmchp_peripheral_32MX795F512L.a(pcache.o)
                0x9d0182e0                CheKseg0CacheOn

.rodata         0x9d0182f8       0x18
 .rodata        0x9d0182f8       0x18 ..\..\..\..\..\..\microchip\xc32\v1.31\pic32mx\lib\libmchp_peripheral_32MX795F512L.a(uart_lib.o)
                0x9d0182f8                uartReg

.text           0x9d018310       0x18
 .text          0x9d018310       0x18 c:/microchip/xc32/v1.31/bin/../lib/gcc/pic32mx/4.5.2/../../../../pic32mx/lib\libpic32.a(default-nmi-handler.o)
                0x9d018310                _nmi_handler

.rodata         0x9d018328        0xc
 .rodata        0x9d018328        0xc build/default/debug/src/app/app_tasks/nuts_bolts.o

.text.OpenCoreTimer
                0x9d018334        0xc
 .text.OpenCoreTimer
                0x9d018334        0xc ..\..\..\..\..\..\microchip\xc32\v1.31\pic32mx\lib\libmchp_peripheral_32MX795F512L.a(open_core_timer_lib.o)
                0x9d018334                OpenCoreTimer

.text.__exception_handler_break
                0x9d018340        0xc
 .text.__exception_handler_break
                0x9d018340        0xc c:/microchip/xc32/v1.31/bin/../lib/gcc/pic32mx/4.5.2/../../../../pic32mx/lib\software-debug-break.o
                0x9d018340                __exception_handler_break

.text.INTEnableInterrupts
                0x9d01834c        0x8
 .text.INTEnableInterrupts
                0x9d01834c        0x8 ..\..\..\..\..\..\microchip\xc32\v1.31\pic32mx\lib\libmchp_peripheral_32MX795F512L.a(int_enable_interrupts_lib.o)
                0x9d01834c                INTEnableInterrupts

.text.INTDisableInterrupts
                0x9d018354        0x8
 .text.INTDisableInterrupts
                0x9d018354        0x8 ..\..\..\..\..\..\microchip\xc32\v1.31\pic32mx\lib\libmchp_peripheral_32MX795F512L.a(int_disable_interrupts_lib.o)
                0x9d018354                INTDisableInterrupts

.text._on_reset
                0x9d01835c        0x8
 .text._on_reset
                0x9d01835c        0x8 c:/microchip/xc32/v1.31/bin/../lib/gcc/pic32mx/4.5.2/../../../../pic32mx/lib\libpic32.a(default-on-reset.o)
                0x9d01835c                _on_reset

.text._on_bootstrap
                0x9d018364        0x8
 .text._on_bootstrap
                0x9d018364        0x8 c:/microchip/xc32/v1.31/bin/../lib/gcc/pic32mx/4.5.2/../../../../pic32mx/lib\libpic32.a(default-on-bootstrap.o)
                0x9d018364                _on_bootstrap

.rodata         0x9d018370        0x8
 .rodata        0x9d018370        0x8 c:/microchip/xc32/v1.31/bin/../lib/gcc/pic32mx/4.5.2/../../../../pic32mx/lib\libpic32.a(isinf.o)

.text%z248      0x00000000        0x0
 .text          0x00000000        0x0 c:/microchip/xc32/v1.31/bin/../lib/gcc/pic32mx/4.5.2/../../../../pic32mx/lib\software-debug-break.o

.text%z249      0x00000000        0x0
 .text          0x00000000        0x0 c:/microchip/xc32/v1.31/bin/../lib/gcc/pic32mx/4.5.2/../../../../pic32mx/lib\libe.a(_unorddf2.o)

.text%z250      0x00000000        0x0
 .text          0x00000000        0x0 c:/microchip/xc32/v1.31/bin/../lib/gcc/pic32mx/4.5.2/../../../../pic32mx/lib\libc.a(itoa.o)

.text%z251      0x00000000        0x0
 .text          0x00000000        0x0 c:/microchip/xc32/v1.31/bin/../lib/gcc/pic32mx/4.5.2/../../../../pic32mx/lib\libpic32.a(isinf.o)

.text%z252      0x00000000        0x0
 .text          0x00000000        0x0 c:/microchip/xc32/v1.31/bin/../lib/gcc/pic32mx/4.5.2/../../../../pic32mx/lib\libpic32.a(errno.o)

.text%z253      0x00000000        0x0
 .text          0x00000000        0x0 c:/microchip/xc32/v1.31/bin/../lib/gcc/pic32mx/4.5.2/../../../../pic32mx/lib\libm.a(w_sqrt.o)

.text%z254      0x00000000        0x0
 .text          0x00000000        0x0 c:/microchip/xc32/v1.31/bin/../lib/gcc/pic32mx/4.5.2/../../../../pic32mx/lib\libm.a(w_ldexp.o)

.text%z255      0x00000000        0x0
 .text          0x00000000        0x0 c:/microchip/xc32/v1.31/bin/../lib/gcc/pic32mx/4.5.2/../../../../pic32mx/lib\libm.a(support.o)

.text%z256      0x00000000        0x0
 .text          0x00000000        0x0 c:/microchip/xc32/v1.31/bin/../lib/gcc/pic32mx/4.5.2/../../../../pic32mx/lib\libm.a(cabs.o)

.text%z257      0x00000000        0x0
 .text          0x00000000        0x0 c:/microchip/xc32/v1.31/bin/../lib/gcc/pic32mx/4.5.2/../../../../pic32mx/lib\libm.a(s_lib_ver.o)

.text%z258      0x00000000        0x0
 .text          0x00000000        0x0 c:/microchip/xc32/v1.31/bin/../lib/gcc/pic32mx/4.5.2/../../../../pic32mx/lib\libm.a(sincof32.o)

.text%z259      0x00000000        0x0
 .text          0x00000000        0x0 c:/microchip/xc32/v1.31/bin/../lib/gcc/pic32mx/4.5.2/../../../../pic32mx/lib\libm.a(w_sqrtf.o)

.text%z260      0x00000000        0x0
 .text          0x00000000        0x0 c:/microchip/xc32/v1.31/bin/../lib/gcc/pic32mx/4.5.2/../../../../pic32mx/lib\libm.a(w_atan2f.o)

.text%z261      0x00000000        0x0
 .text          0x00000000        0x0 c:/microchip/xc32/v1.31/bin/../lib/gcc/pic32mx/4.5.2/../../../../pic32mx/lib\libpic32.a(defaultinterrupt.o)

.text%z262      0x00000000        0x0
 .text          0x00000000        0x0 c:/microchip/xc32/v1.31/bin/../lib/gcc/pic32mx/4.5.2/../../../../pic32mx/lib\libpic32.a(default-general-exception-handler.o)

.text%z263      0x00000000        0x0
 .text          0x00000000        0x0 c:/microchip/xc32/v1.31/bin/../lib/gcc/pic32mx/4.5.2/../../../../pic32mx/lib\libpic32.a(vector63.o)

.text%z264      0x00000000        0x0
 .text          0x00000000        0x0 c:/microchip/xc32/v1.31/bin/../lib/gcc/pic32mx/4.5.2/../../../../pic32mx/lib\libpic32.a(vector62.o)

.text%z265      0x00000000        0x0
 .text          0x00000000        0x0 c:/microchip/xc32/v1.31/bin/../lib/gcc/pic32mx/4.5.2/../../../../pic32mx/lib\libpic32.a(vector61.o)

.text%z266      0x00000000        0x0
 .text          0x00000000        0x0 c:/microchip/xc32/v1.31/bin/../lib/gcc/pic32mx/4.5.2/../../../../pic32mx/lib\libpic32.a(vector60.o)

.text%z267      0x00000000        0x0
 .text          0x00000000        0x0 c:/microchip/xc32/v1.31/bin/../lib/gcc/pic32mx/4.5.2/../../../../pic32mx/lib\libpic32.a(vector59.o)

.text%z268      0x00000000        0x0
 .text          0x00000000        0x0 c:/microchip/xc32/v1.31/bin/../lib/gcc/pic32mx/4.5.2/../../../../pic32mx/lib\libpic32.a(vector58.o)

.text%z269      0x00000000        0x0
 .text          0x00000000        0x0 c:/microchip/xc32/v1.31/bin/../lib/gcc/pic32mx/4.5.2/../../../../pic32mx/lib\libpic32.a(vector57.o)

.text%z270      0x00000000        0x0
 .text          0x00000000        0x0 c:/microchip/xc32/v1.31/bin/../lib/gcc/pic32mx/4.5.2/../../../../pic32mx/lib\libpic32.a(vector56.o)

.text%z271      0x00000000        0x0
 .text          0x00000000        0x0 c:/microchip/xc32/v1.31/bin/../lib/gcc/pic32mx/4.5.2/../../../../pic32mx/lib\libpic32.a(vector55.o)

.text%z272      0x00000000        0x0
 .text          0x00000000        0x0 c:/microchip/xc32/v1.31/bin/../lib/gcc/pic32mx/4.5.2/../../../../pic32mx/lib\libpic32.a(vector54.o)

.text%z273      0x00000000        0x0
 .text          0x00000000        0x0 c:/microchip/xc32/v1.31/bin/../lib/gcc/pic32mx/4.5.2/../../../../pic32mx/lib\libpic32.a(vector53.o)

.text%z274      0x00000000        0x0
 .text          0x00000000        0x0 c:/microchip/xc32/v1.31/bin/../lib/gcc/pic32mx/4.5.2/../../../../pic32mx/lib\libpic32.a(vector52.o)

.text%z275      0x00000000        0x0
 .text          0x00000000        0x0 c:/microchip/xc32/v1.31/bin/../lib/gcc/pic32mx/4.5.2/../../../../pic32mx/lib\libpic32.a(vector51.o)

.text%z276      0x00000000        0x0
 .text          0x00000000        0x0 c:/microchip/xc32/v1.31/bin/../lib/gcc/pic32mx/4.5.2/../../../../pic32mx/lib\libpic32.a(vector50.o)

.text%z277      0x00000000        0x0
 .text          0x00000000        0x0 c:/microchip/xc32/v1.31/bin/../lib/gcc/pic32mx/4.5.2/../../../../pic32mx/lib\libpic32.a(vector49.o)

.text%z278      0x00000000        0x0
 .text          0x00000000        0x0 c:/microchip/xc32/v1.31/bin/../lib/gcc/pic32mx/4.5.2/../../../../pic32mx/lib\libpic32.a(vector48.o)

.text%z279      0x00000000        0x0
 .text          0x00000000        0x0 c:/microchip/xc32/v1.31/bin/../lib/gcc/pic32mx/4.5.2/../../../../pic32mx/lib\libpic32.a(vector47.o)

.text%z280      0x00000000        0x0
 .text          0x00000000        0x0 c:/microchip/xc32/v1.31/bin/../lib/gcc/pic32mx/4.5.2/../../../../pic32mx/lib\libpic32.a(vector46.o)

.text%z281      0x00000000        0x0
 .text          0x00000000        0x0 c:/microchip/xc32/v1.31/bin/../lib/gcc/pic32mx/4.5.2/../../../../pic32mx/lib\libpic32.a(vector45.o)

.text%z282      0x00000000        0x0
 .text          0x00000000        0x0 c:/microchip/xc32/v1.31/bin/../lib/gcc/pic32mx/4.5.2/../../../../pic32mx/lib\libpic32.a(vector44.o)

.text%z283      0x00000000        0x0
 .text          0x00000000        0x0 c:/microchip/xc32/v1.31/bin/../lib/gcc/pic32mx/4.5.2/../../../../pic32mx/lib\libpic32.a(vector43.o)

.text%z284      0x00000000        0x0
 .text          0x00000000        0x0 c:/microchip/xc32/v1.31/bin/../lib/gcc/pic32mx/4.5.2/../../../../pic32mx/lib\libpic32.a(vector42.o)

.text%z285      0x00000000        0x0
 .text          0x00000000        0x0 c:/microchip/xc32/v1.31/bin/../lib/gcc/pic32mx/4.5.2/../../../../pic32mx/lib\libpic32.a(vector41.o)

.text%z286      0x00000000        0x0
 .text          0x00000000        0x0 c:/microchip/xc32/v1.31/bin/../lib/gcc/pic32mx/4.5.2/../../../../pic32mx/lib\libpic32.a(vector40.o)

.text%z287      0x00000000        0x0
 .text          0x00000000        0x0 c:/microchip/xc32/v1.31/bin/../lib/gcc/pic32mx/4.5.2/../../../../pic32mx/lib\libpic32.a(vector39.o)

.text%z288      0x00000000        0x0
 .text          0x00000000        0x0 c:/microchip/xc32/v1.31/bin/../lib/gcc/pic32mx/4.5.2/../../../../pic32mx/lib\libpic32.a(vector38.o)

.text%z289      0x00000000        0x0
 .text          0x00000000        0x0 c:/microchip/xc32/v1.31/bin/../lib/gcc/pic32mx/4.5.2/../../../../pic32mx/lib\libpic32.a(vector37.o)

.text%z290      0x00000000        0x0
 .text          0x00000000        0x0 c:/microchip/xc32/v1.31/bin/../lib/gcc/pic32mx/4.5.2/../../../../pic32mx/lib\libpic32.a(vector36.o)

.text%z291      0x00000000        0x0
 .text          0x00000000        0x0 c:/microchip/xc32/v1.31/bin/../lib/gcc/pic32mx/4.5.2/../../../../pic32mx/lib\libpic32.a(vector35.o)

.text%z292      0x00000000        0x0
 .text          0x00000000        0x0 c:/microchip/xc32/v1.31/bin/../lib/gcc/pic32mx/4.5.2/../../../../pic32mx/lib\libpic32.a(vector34.o)

.text%z293      0x00000000        0x0
 .text          0x00000000        0x0 c:/microchip/xc32/v1.31/bin/../lib/gcc/pic32mx/4.5.2/../../../../pic32mx/lib\libpic32.a(vector33.o)

.text%z294      0x00000000        0x0
 .text          0x00000000        0x0 c:/microchip/xc32/v1.31/bin/../lib/gcc/pic32mx/4.5.2/../../../../pic32mx/lib\libpic32.a(vector31.o)

.text%z295      0x00000000        0x0
 .text          0x00000000        0x0 c:/microchip/xc32/v1.31/bin/../lib/gcc/pic32mx/4.5.2/../../../../pic32mx/lib\libpic32.a(vector30.o)

.text%z296      0x00000000        0x0
 .text          0x00000000        0x0 c:/microchip/xc32/v1.31/bin/../lib/gcc/pic32mx/4.5.2/../../../../pic32mx/lib\libpic32.a(vector29.o)

.text%z297      0x00000000        0x0
 .text          0x00000000        0x0 c:/microchip/xc32/v1.31/bin/../lib/gcc/pic32mx/4.5.2/../../../../pic32mx/lib\libpic32.a(vector28.o)

.text%z298      0x00000000        0x0
 .text          0x00000000        0x0 c:/microchip/xc32/v1.31/bin/../lib/gcc/pic32mx/4.5.2/../../../../pic32mx/lib\libpic32.a(vector27.o)

.text%z299      0x00000000        0x0
 .text          0x00000000        0x0 c:/microchip/xc32/v1.31/bin/../lib/gcc/pic32mx/4.5.2/../../../../pic32mx/lib\libpic32.a(vector26.o)

.text%z300      0x00000000        0x0
 .text          0x00000000        0x0 c:/microchip/xc32/v1.31/bin/../lib/gcc/pic32mx/4.5.2/../../../../pic32mx/lib\libpic32.a(vector25.o)

.text%z301      0x00000000        0x0
 .text          0x00000000        0x0 c:/microchip/xc32/v1.31/bin/../lib/gcc/pic32mx/4.5.2/../../../../pic32mx/lib\libpic32.a(vector24.o)

.text%z302      0x00000000        0x0
 .text          0x00000000        0x0 c:/microchip/xc32/v1.31/bin/../lib/gcc/pic32mx/4.5.2/../../../../pic32mx/lib\libpic32.a(vector23.o)

.text%z303      0x00000000        0x0
 .text          0x00000000        0x0 c:/microchip/xc32/v1.31/bin/../lib/gcc/pic32mx/4.5.2/../../../../pic32mx/lib\libpic32.a(vector22.o)

.text%z304      0x00000000        0x0
 .text          0x00000000        0x0 c:/microchip/xc32/v1.31/bin/../lib/gcc/pic32mx/4.5.2/../../../../pic32mx/lib\libpic32.a(vector21.o)

.text%z305      0x00000000        0x0
 .text          0x00000000        0x0 c:/microchip/xc32/v1.31/bin/../lib/gcc/pic32mx/4.5.2/../../../../pic32mx/lib\libpic32.a(vector20.o)

.text%z306      0x00000000        0x0
 .text          0x00000000        0x0 c:/microchip/xc32/v1.31/bin/../lib/gcc/pic32mx/4.5.2/../../../../pic32mx/lib\libpic32.a(vector19.o)

.text%z307      0x00000000        0x0
 .text          0x00000000        0x0 c:/microchip/xc32/v1.31/bin/../lib/gcc/pic32mx/4.5.2/../../../../pic32mx/lib\libpic32.a(vector18.o)

.text%z308      0x00000000        0x0
 .text          0x00000000        0x0 c:/microchip/xc32/v1.31/bin/../lib/gcc/pic32mx/4.5.2/../../../../pic32mx/lib\libpic32.a(vector17.o)

.text%z309      0x00000000        0x0
 .text          0x00000000        0x0 c:/microchip/xc32/v1.31/bin/../lib/gcc/pic32mx/4.5.2/../../../../pic32mx/lib\libpic32.a(vector15.o)

.text%z310      0x00000000        0x0
 .text          0x00000000        0x0 c:/microchip/xc32/v1.31/bin/../lib/gcc/pic32mx/4.5.2/../../../../pic32mx/lib\libpic32.a(vector14.o)

.text%z311      0x00000000        0x0
 .text          0x00000000        0x0 c:/microchip/xc32/v1.31/bin/../lib/gcc/pic32mx/4.5.2/../../../../pic32mx/lib\libpic32.a(vector13.o)

.text%z312      0x00000000        0x0
 .text          0x00000000        0x0 c:/microchip/xc32/v1.31/bin/../lib/gcc/pic32mx/4.5.2/../../../../pic32mx/lib\libpic32.a(vector10.o)

.text%z313      0x00000000        0x0
 .text          0x00000000        0x0 c:/microchip/xc32/v1.31/bin/../lib/gcc/pic32mx/4.5.2/../../../../pic32mx/lib\libpic32.a(vector9.o)

.text%z314      0x00000000        0x0
 .text          0x00000000        0x0 c:/microchip/xc32/v1.31/bin/../lib/gcc/pic32mx/4.5.2/../../../../pic32mx/lib\libpic32.a(vector6.o)

.text%z315      0x00000000        0x0
 .text          0x00000000        0x0 c:/microchip/xc32/v1.31/bin/../lib/gcc/pic32mx/4.5.2/../../../../pic32mx/lib\libpic32.a(vector5.o)

.text%z316      0x00000000        0x0
 .text          0x00000000        0x0 c:/microchip/xc32/v1.31/bin/../lib/gcc/pic32mx/4.5.2/../../../../pic32mx/lib\libpic32.a(vector3.o)

.text%z317      0x00000000        0x0
 .text          0x00000000        0x0 c:/microchip/xc32/v1.31/bin/../lib/gcc/pic32mx/4.5.2/../../../../pic32mx/lib\libpic32.a(vector2.o)

.text%z318      0x00000000        0x0
 .text          0x00000000        0x0 c:/microchip/xc32/v1.31/bin/../lib/gcc/pic32mx/4.5.2/../../../../pic32mx/lib\libpic32.a(vector1.o)

.text%z319      0x00000000        0x0
 .text          0x00000000        0x0 c:/microchip/xc32/v1.31/bin/../lib/gcc/pic32mx/4.5.2/../../../../pic32mx/lib\libpic32.a(general-exception.o)

.text%z320      0x00000000        0x0
 .text          0x00000000        0x0 c:/microchip/xc32/v1.31/bin/../lib/gcc/pic32mx/4.5.2/../../../../pic32mx/lib\libpic32.a(default-on-bootstrap.o)

.text%z321      0x00000000        0x0
 .text          0x00000000        0x0 c:/microchip/xc32/v1.31/bin/../lib/gcc/pic32mx/4.5.2/../../../../pic32mx/lib\libpic32.a(default-on-reset.o)

.text%z322      0x00000000        0x0
 .text          0x00000000        0x0 c:/microchip/xc32/v1.31/bin/../lib/gcc/pic32mx/4.5.2/../../../../pic32mx/lib\libpic32.a(default-bootstrap-exception-handler.o)

.text%z323      0x00000000        0x0
 .text          0x00000000        0x0 c:/microchip/xc32/v1.31/bin/../lib/gcc/pic32mx/4.5.2/../../../../pic32mx/lib/./proc/32MX795F512L\processor.o

.text%z324      0x00000000        0x0
 .text          0x00000000        0x0 c:/microchip/xc32/v1.31/bin/../lib/gcc/pic32mx/4.5.2/../../../../pic32mx/lib/./proc/32MX795F512L\default_isr_vectors.o

.text%z325      0x00000000        0x0
 .text          0x00000000        0x0 ..\..\..\..\..\..\microchip\xc32\v1.31\pic32mx\lib\libmchp_peripheral_32MX795F512L.a(uart_lib.o)

.text%z326      0x00000000        0x0
 .text          0x00000000        0x0 ..\..\..\..\..\..\microchip\xc32\v1.31\pic32mx\lib\libmchp_peripheral_32MX795F512L.a(_ports_tbl_libp.o)

.text%z327      0x00000000        0x0
 .text          0x00000000        0x0 ..\..\..\..\..\..\microchip\xc32\v1.31\pic32mx\lib\libmchp_peripheral_32MX795F512L.a(port_set_bits_lib.o)

.text%z328      0x00000000        0x0
 .text          0x00000000        0x0 ..\..\..\..\..\..\microchip\xc32\v1.31\pic32mx\lib\libmchp_peripheral_32MX795F512L.a(port_clear_bits_lib.o)

.text%z329      0x00000000        0x0
 .text          0x00000000        0x0 ..\..\..\..\..\..\microchip\xc32\v1.31\pic32mx\lib\libmchp_peripheral_32MX795F512L.a(port_read_bits_lib.o)

.text%z330      0x00000000        0x0
 .text          0x00000000        0x0 ..\..\..\..\..\..\microchip\xc32\v1.31\pic32mx\lib\libmchp_peripheral_32MX795F512L.a(port_set_pins_digital_out_lib.o)

.text%z331      0x00000000        0x0
 .text          0x00000000        0x0 ..\..\..\..\..\..\microchip\xc32\v1.31\pic32mx\lib\libmchp_peripheral_32MX795F512L.a(port_set_pins_digital_in_lib.o)

.text%z332      0x00000000        0x0
 .text          0x00000000        0x0 ..\..\..\..\..\..\microchip\xc32\v1.31\pic32mx\lib\libmchp_peripheral_32MX795F512L.a(nvm_write_word_lib.o)

.text%z333      0x00000000        0x0
 .text          0x00000000        0x0 ..\..\..\..\..\..\microchip\xc32\v1.31\pic32mx\lib\libmchp_peripheral_32MX795F512L.a(nvm_operation_lib.o)

.text%z334      0x00000000        0x0
 .text          0x00000000        0x0 ..\..\..\..\..\..\microchip\xc32\v1.31\pic32mx\lib\libmchp_peripheral_32MX795F512L.a(nvm_erase_page_lib.o)

.text%z335      0x00000000        0x0
 .text          0x00000000        0x0 ..\..\..\..\..\..\microchip\xc32\v1.31\pic32mx\lib\libmchp_peripheral_32MX795F512L.a(int_tbl_lib.o)

.text%z336      0x00000000        0x0
 .text          0x00000000        0x0 ..\..\..\..\..\..\microchip\xc32\v1.31\pic32mx\lib\libmchp_peripheral_32MX795F512L.a(int_restore_interrupts_lib.o)

.text%z337      0x00000000        0x0
 .text          0x00000000        0x0 ..\..\..\..\..\..\microchip\xc32\v1.31\pic32mx\lib\libmchp_peripheral_32MX795F512L.a(int_disable_interrupts_lib.o)

.text%z338      0x00000000        0x0
 .text          0x00000000        0x0 ..\..\..\..\..\..\microchip\xc32\v1.31\pic32mx\lib\libmchp_peripheral_32MX795F512L.a(int_enable_interrupts_lib.o)

.text%z339      0x00000000        0x0
 .text          0x00000000        0x0 ..\..\..\..\..\..\microchip\xc32\v1.31\pic32mx\lib\libmchp_peripheral_32MX795F512L.a(int_configure_system_lib.o)

.text%z340      0x00000000        0x0
 .text          0x00000000        0x0 ..\..\..\..\..\..\microchip\xc32\v1.31\pic32mx\lib\libmchp_peripheral_32MX795F512L.a(pcache.o)

.text%z341      0x00000000        0x0
 .text          0x00000000        0x0 ..\..\..\..\..\..\microchip\xc32\v1.31\pic32mx\lib\libmchp_peripheral_32MX795F512L.a(open_core_timer_lib.o)

.text%z342      0x00000000        0x0
 .text          0x00000000        0x0 c:/microchip/xc32/v1.31/bin/../lib/gcc/pic32mx/4.5.2/../../../../pic32mx/lib/./proc/32MX795F512L/crt0_mips32r2.o
